Archive member included to satisfy reference by file (symbol)

/home/ubuntu/tina5sdk-bsp/brandy/brandy-2.0/tools/toolchain/gcc-linaro-7.2.1-2017.11-x86_64_arm-linux-gnueabi/bin/../lib/gcc/arm-linux-gnueabi/7.2.1/libgcc.a(_udivsi3.o)
                              /home/ubuntu/tina5sdk-bsp/brandy/brandy-2.0/spl-pub/board/t113/libsun8iw20p1_spinor.a (__aeabi_uidiv)
/home/ubuntu/tina5sdk-bsp/brandy/brandy-2.0/tools/toolchain/gcc-linaro-7.2.1-2017.11-x86_64_arm-linux-gnueabi/bin/../lib/gcc/arm-linux-gnueabi/7.2.1/libgcc.a(_divsi3.o)
                              /home/ubuntu/tina5sdk-bsp/brandy/brandy-2.0/spl-pub/board/t113/libsun8iw20p1_spinor.a (__aeabi_idiv)
/home/ubuntu/tina5sdk-bsp/brandy/brandy-2.0/tools/toolchain/gcc-linaro-7.2.1-2017.11-x86_64_arm-linux-gnueabi/bin/../lib/gcc/arm-linux-gnueabi/7.2.1/libgcc.a(_arm_addsubsf3.o)
                              /home/ubuntu/tina5sdk-bsp/brandy/brandy-2.0/spl-pub/board/t113/libsun8iw20p1_spinor.a (__aeabi_fsub)
/home/ubuntu/tina5sdk-bsp/brandy/brandy-2.0/tools/toolchain/gcc-linaro-7.2.1-2017.11-x86_64_arm-linux-gnueabi/bin/../lib/gcc/arm-linux-gnueabi/7.2.1/libgcc.a(_arm_muldivsf3.o)
                              /home/ubuntu/tina5sdk-bsp/brandy/brandy-2.0/spl-pub/board/t113/libsun8iw20p1_spinor.a (__aeabi_fmul)
/home/ubuntu/tina5sdk-bsp/brandy/brandy-2.0/tools/toolchain/gcc-linaro-7.2.1-2017.11-x86_64_arm-linux-gnueabi/bin/../lib/gcc/arm-linux-gnueabi/7.2.1/libgcc.a(_arm_fixsfsi.o)
                              /home/ubuntu/tina5sdk-bsp/brandy/brandy-2.0/spl-pub/board/t113/libsun8iw20p1_spinor.a (__aeabi_f2iz)
/home/ubuntu/tina5sdk-bsp/brandy/brandy-2.0/tools/toolchain/gcc-linaro-7.2.1-2017.11-x86_64_arm-linux-gnueabi/bin/../lib/gcc/arm-linux-gnueabi/7.2.1/libgcc.a(_dvmd_lnx.o)
                              /home/ubuntu/tina5sdk-bsp/brandy/brandy-2.0/tools/toolchain/gcc-linaro-7.2.1-2017.11-x86_64_arm-linux-gnueabi/bin/../lib/gcc/arm-linux-gnueabi/7.2.1/libgcc.a(_udivsi3.o) (__aeabi_idiv0)

Discarded input sections

 .text.__msdelay
                0x0000000000000000        0x4 /home/ubuntu/tina5sdk-bsp/brandy/brandy-2.0/spl-pub/board/t113/libsun8iw20p1_spinor.a
 .text.timer_init
                0x0000000000000000        0x4 /home/ubuntu/tina5sdk-bsp/brandy/brandy-2.0/spl-pub/board/t113/libsun8iw20p1_spinor.a
 .text.sdelay   0x0000000000000000        0x6 /home/ubuntu/tina5sdk-bsp/brandy/brandy-2.0/spl-pub/board/t113/libsun8iw20p1_spinor.a
 .text.timer_exit
                0x0000000000000000        0x2 /home/ubuntu/tina5sdk-bsp/brandy/brandy-2.0/spl-pub/board/t113/libsun8iw20p1_spinor.a
 .text.enable_smp
                0x0000000000000000        0xe /home/ubuntu/tina5sdk-bsp/brandy/brandy-2.0/spl-pub/board/t113/libsun8iw20p1_spinor.a
 .text.neon_enable
                0x0000000000000000       0x20 /home/ubuntu/tina5sdk-bsp/brandy/brandy-2.0/spl-pub/board/t113/libsun8iw20p1_spinor.a
 .text.__jump_kernel
                0x0000000000000000       0x5c /home/ubuntu/tina5sdk-bsp/brandy/brandy-2.0/spl-pub/board/t113/libsun8iw20p1_spinor.a
 .text.boot0_jump_kernel
                0x0000000000000000        0xa /home/ubuntu/tina5sdk-bsp/brandy/brandy-2.0/spl-pub/board/t113/libsun8iw20p1_spinor.a
 .text.optee_jump_kernel
                0x0000000000000000        0x4 /home/ubuntu/tina5sdk-bsp/brandy/brandy-2.0/spl-pub/board/t113/libsun8iw20p1_spinor.a
 .text.sunxi_assert_arisc
                0x0000000000000000       0x34 /home/ubuntu/tina5sdk-bsp/brandy/brandy-2.0/spl-pub/board/t113/libsun8iw20p1_spinor.a
 .text.sunxi_deassert_arisc
                0x0000000000000000       0x34 /home/ubuntu/tina5sdk-bsp/brandy/brandy-2.0/spl-pub/board/t113/libsun8iw20p1_spinor.a
 .text.sunxi_clock_init_key
                0x0000000000000000       0x3c /home/ubuntu/tina5sdk-bsp/brandy/brandy-2.0/spl-pub/board/t113/libsun8iw20p1_spinor.a
 .text.sunxi_clock_exit_key
                0x0000000000000000       0x1c /home/ubuntu/tina5sdk-bsp/brandy/brandy-2.0/spl-pub/board/t113/libsun8iw20p1_spinor.a
 .text.strcpy   0x0000000000000000       0x10 /home/ubuntu/tina5sdk-bsp/brandy/brandy-2.0/spl-pub/board/t113/libsun8iw20p1_spinor.a
 .text.strncpy  0x0000000000000000       0x18 /home/ubuntu/tina5sdk-bsp/brandy/brandy-2.0/spl-pub/board/t113/libsun8iw20p1_spinor.a
 .text.strcat   0x0000000000000000       0x1e /home/ubuntu/tina5sdk-bsp/brandy/brandy-2.0/spl-pub/board/t113/libsun8iw20p1_spinor.a
 .text.strncat  0x0000000000000000       0x28 /home/ubuntu/tina5sdk-bsp/brandy/brandy-2.0/spl-pub/board/t113/libsun8iw20p1_spinor.a
 .text.strcmp   0x0000000000000000       0x16 /home/ubuntu/tina5sdk-bsp/brandy/brandy-2.0/spl-pub/board/t113/libsun8iw20p1_spinor.a
 .text.strchr   0x0000000000000000       0x18 /home/ubuntu/tina5sdk-bsp/brandy/brandy-2.0/spl-pub/board/t113/libsun8iw20p1_spinor.a
 .text.strrchr  0x0000000000000000       0x20 /home/ubuntu/tina5sdk-bsp/brandy/brandy-2.0/spl-pub/board/t113/libsun8iw20p1_spinor.a
 .text.strnlen  0x0000000000000000       0x18 /home/ubuntu/tina5sdk-bsp/brandy/brandy-2.0/spl-pub/board/t113/libsun8iw20p1_spinor.a
 .text.strspn   0x0000000000000000       0x20 /home/ubuntu/tina5sdk-bsp/brandy/brandy-2.0/spl-pub/board/t113/libsun8iw20p1_spinor.a
 .text.memcmp   0x0000000000000000       0x1e /home/ubuntu/tina5sdk-bsp/brandy/brandy-2.0/spl-pub/board/t113/libsun8iw20p1_spinor.a
 .text.memmove  0x0000000000000000       0x28 /home/ubuntu/tina5sdk-bsp/brandy/brandy-2.0/spl-pub/board/t113/libsun8iw20p1_spinor.a
 .text.memscan  0x0000000000000000       0x16 /home/ubuntu/tina5sdk-bsp/brandy/brandy-2.0/spl-pub/board/t113/libsun8iw20p1_spinor.a
 .text.strstr   0x0000000000000000       0x40 /home/ubuntu/tina5sdk-bsp/brandy/brandy-2.0/spl-pub/board/t113/libsun8iw20p1_spinor.a
 .text.memchr   0x0000000000000000       0x1c /home/ubuntu/tina5sdk-bsp/brandy/brandy-2.0/spl-pub/board/t113/libsun8iw20p1_spinor.a
 .text.simple_strtoul
                0x0000000000000000       0x84 /home/ubuntu/tina5sdk-bsp/brandy/brandy-2.0/spl-pub/board/t113/libsun8iw20p1_spinor.a
 .text.vprintf  0x0000000000000000       0x1c /home/ubuntu/tina5sdk-bsp/brandy/brandy-2.0/spl-pub/board/t113/libsun8iw20p1_spinor.a
 .text.sunxi_get_printf_debug_mode
                0x0000000000000000        0xc /home/ubuntu/tina5sdk-bsp/brandy/brandy-2.0/spl-pub/board/t113/libsun8iw20p1_spinor.a
 .text.puts     0x0000000000000000        0xc /home/ubuntu/tina5sdk-bsp/brandy/brandy-2.0/spl-pub/board/t113/libsun8iw20p1_spinor.a
 .text.snprintf
                0x0000000000000000       0x2c /home/ubuntu/tina5sdk-bsp/brandy/brandy-2.0/spl-pub/board/t113/libsun8iw20p1_spinor.a
 .text.print_sys_tick
                0x0000000000000000       0x18 /home/ubuntu/tina5sdk-bsp/brandy/brandy-2.0/spl-pub/board/t113/libsun8iw20p1_spinor.a
 .text.verify_addsum
                0x0000000000000000       0x60 /home/ubuntu/tina5sdk-bsp/brandy/brandy-2.0/spl-pub/board/t113/libsun8iw20p1_spinor.a
 .text.verify_addsum_for_kernel
                0x0000000000000000       0x60 /home/ubuntu/tina5sdk-bsp/brandy/brandy-2.0/spl-pub/board/t113/libsun8iw20p1_spinor.a
 .text.g_mod    0x0000000000000000       0x22 /home/ubuntu/tina5sdk-bsp/brandy/brandy-2.0/spl-pub/board/t113/libsun8iw20p1_spinor.a
 .text.get_page_buf
                0x0000000000000000        0x8 /home/ubuntu/tina5sdk-bsp/brandy/brandy-2.0/spl-pub/board/t113/libsun8iw20p1_spinor.a
 .text.__aeabi_unwind_cpp_pr0
                0x0000000000000000        0x2 /home/ubuntu/tina5sdk-bsp/brandy/brandy-2.0/spl-pub/board/t113/libsun8iw20p1_spinor.a
 .text.realloc  0x0000000000000000       0x6c /home/ubuntu/tina5sdk-bsp/brandy/brandy-2.0/spl-pub/board/t113/libsun8iw20p1_spinor.a
 .text.u8_to_string_hex
                0x0000000000000000       0x1c /home/ubuntu/tina5sdk-bsp/brandy/brandy-2.0/spl-pub/board/t113/libsun8iw20p1_spinor.a
 .text.ndump    0x0000000000000000       0x6c /home/ubuntu/tina5sdk-bsp/brandy/brandy-2.0/spl-pub/board/t113/libsun8iw20p1_spinor.a
 .text.__assert_fail
                0x0000000000000000       0x10 /home/ubuntu/tina5sdk-bsp/brandy/brandy-2.0/spl-pub/board/t113/libsun8iw20p1_spinor.a
 .text.exist_uboot_jmp_cardproduct
                0x0000000000000000       0x28 /home/ubuntu/tina5sdk-bsp/brandy/brandy-2.0/spl-pub/board/t113/libsun8iw20p1_spinor.a
 .text.android_image_get_ramdisk
                0x0000000000000000       0x24 /home/ubuntu/tina5sdk-bsp/brandy/brandy-2.0/spl-pub/board/t113/libsun8iw20p1_spinor.a
 .text.sunxi_mem_info
                0x0000000000000000       0x2c /home/ubuntu/tina5sdk-bsp/brandy/brandy-2.0/spl-pub/board/t113/libsun8iw20p1_spinor.a
 .text.load_bimage
                0x0000000000000000      0x12c /home/ubuntu/tina5sdk-bsp/brandy/brandy-2.0/spl-pub/board/t113/libsun8iw20p1_spinor.a
 .text.load_uimage
                0x0000000000000000       0x40 /home/ubuntu/tina5sdk-bsp/brandy/brandy-2.0/spl-pub/board/t113/libsun8iw20p1_spinor.a
 .text.sunxi_switch_rootfs
                0x0000000000000000      0x12c /home/ubuntu/tina5sdk-bsp/brandy/brandy-2.0/spl-pub/board/t113/libsun8iw20p1_spinor.a
 .text.get_switch_flag
                0x0000000000000000        0x4 /home/ubuntu/tina5sdk-bsp/brandy/brandy-2.0/spl-pub/board/t113/libsun8iw20p1_spinor.a
 .text.get_switch_kernel_flag
                0x0000000000000000       0x14 /home/ubuntu/tina5sdk-bsp/brandy/brandy-2.0/spl-pub/board/t113/libsun8iw20p1_spinor.a
 .text.get_switch_rootfs_flag
                0x0000000000000000       0x14 /home/ubuntu/tina5sdk-bsp/brandy/brandy-2.0/spl-pub/board/t113/libsun8iw20p1_spinor.a
 .text.sunxi_update_fdt_para_for_kernel
                0x0000000000000000       0x4c /home/ubuntu/tina5sdk-bsp/brandy/brandy-2.0/spl-pub/board/t113/libsun8iw20p1_spinor.a
 .text.fdt_enable_node
                0x0000000000000000       0x3c /home/ubuntu/tina5sdk-bsp/brandy/brandy-2.0/spl-pub/board/t113/libsun8iw20p1_spinor.a
 .text.sunxi_gpio_get_cfgbank
                0x0000000000000000       0x1a /home/ubuntu/tina5sdk-bsp/brandy/brandy-2.0/spl-pub/board/t113/libsun8iw20p1_spinor.a
 .text.sunxi_gpio_get_cfgpin
                0x0000000000000000       0x20 /home/ubuntu/tina5sdk-bsp/brandy/brandy-2.0/spl-pub/board/t113/libsun8iw20p1_spinor.a
 .text.sunxi_gpio_set_drv
                0x0000000000000000       0x48 /home/ubuntu/tina5sdk-bsp/brandy/brandy-2.0/spl-pub/board/t113/libsun8iw20p1_spinor.a
 .text.rtc_clear_data
                0x0000000000000000        0x4 /home/ubuntu/tina5sdk-bsp/brandy/brandy-2.0/spl-pub/board/t113/libsun8iw20p1_spinor.a
 .text.rtc_set_data
                0x0000000000000000       0x1e /home/ubuntu/tina5sdk-bsp/brandy/brandy-2.0/spl-pub/board/t113/libsun8iw20p1_spinor.a
 .text.rtc_set_fel_flag
                0x0000000000000000       0x20 /home/ubuntu/tina5sdk-bsp/brandy/brandy-2.0/spl-pub/board/t113/libsun8iw20p1_spinor.a
 .text.rtc_set_hash_entry
                0x0000000000000000       0x1c /home/ubuntu/tina5sdk-bsp/brandy/brandy-2.0/spl-pub/board/t113/libsun8iw20p1_spinor.a
 .text.spi_release_bus
                0x0000000000000000       0x28 /home/ubuntu/tina5sdk-bsp/brandy/brandy-2.0/spl-pub/board/t113/libsun8iw20p1_spinor.a
 .text.spi_exit
                0x0000000000000000        0xc /home/ubuntu/tina5sdk-bsp/brandy/brandy-2.0/spl-pub/board/t113/libsun8iw20p1_spinor.a
 .text.axp_i2c_write
                0x0000000000000000       0x16 /home/ubuntu/tina5sdk-bsp/brandy/brandy-2.0/spl-pub/board/t113/libsun8iw20p1_spinor.a
 .text.axp_i2c_read
                0x0000000000000000       0x12 /home/ubuntu/tina5sdk-bsp/brandy/brandy-2.0/spl-pub/board/t113/libsun8iw20p1_spinor.a
 .text.pmic_bus_setbits
                0x0000000000000000       0x28 /home/ubuntu/tina5sdk-bsp/brandy/brandy-2.0/spl-pub/board/t113/libsun8iw20p1_spinor.a
 .text.pmic_bus_clrbits
                0x0000000000000000       0x2a /home/ubuntu/tina5sdk-bsp/brandy/brandy-2.0/spl-pub/board/t113/libsun8iw20p1_spinor.a
 .text.super_standby_mode
                0x0000000000000000       0x14 /home/ubuntu/tina5sdk-bsp/brandy/brandy-2.0/spl-pub/board/t113/libsun8iw20p1_spinor.a
 .text.sunxi_dma_request_from_last
                0x0000000000000000       0x28 /home/ubuntu/tina5sdk-bsp/brandy/brandy-2.0/spl-pub/board/t113/libsun8iw20p1_spinor.a
 .text.sunxi_dma_stop
                0x0000000000000000       0x16 /home/ubuntu/tina5sdk-bsp/brandy/brandy-2.0/spl-pub/board/t113/libsun8iw20p1_spinor.a
 .text.sunxi_dma_disable_int
                0x0000000000000000       0x78 /home/ubuntu/tina5sdk-bsp/brandy/brandy-2.0/spl-pub/board/t113/libsun8iw20p1_spinor.a
 .text.sunxi_dma_free_int
                0x0000000000000000       0x48 /home/ubuntu/tina5sdk-bsp/brandy/brandy-2.0/spl-pub/board/t113/libsun8iw20p1_spinor.a
 .text.sunxi_dma_exit
                0x0000000000000000       0x7c /home/ubuntu/tina5sdk-bsp/brandy/brandy-2.0/spl-pub/board/t113/libsun8iw20p1_spinor.a
 .text.sunxi_dma_release
                0x0000000000000000       0x1e /home/ubuntu/tina5sdk-bsp/brandy/brandy-2.0/spl-pub/board/t113/libsun8iw20p1_spinor.a
 .text.get_boot_dram_training_enable_flag
                0x0000000000000000        0x8 /home/ubuntu/tina5sdk-bsp/brandy/brandy-2.0/spl-pub/board/t113/libsun8iw20p1_spinor.a
 .text.get_boot_dram_update_flag
                0x0000000000000000        0x6 /home/ubuntu/tina5sdk-bsp/brandy/brandy-2.0/spl-pub/board/t113/libsun8iw20p1_spinor.a
 .text.dram_udelay
                0x0000000000000000        0x4 /home/ubuntu/tina5sdk-bsp/brandy/brandy-2.0/spl-pub/board/t113/libsun8iw20p1_spinor.a
 .text.paraconfig
                0x0000000000000000        0xc /home/ubuntu/tina5sdk-bsp/brandy/brandy-2.0/spl-pub/board/t113/libsun8iw20p1_spinor.a
 .text.bit_delay_compensation
                0x0000000000000000       0x78 /home/ubuntu/tina5sdk-bsp/brandy/brandy-2.0/spl-pub/board/t113/libsun8iw20p1_spinor.a
 .text.set_master_priority_pad
                0x0000000000000000       0xb0 /home/ubuntu/tina5sdk-bsp/brandy/brandy-2.0/spl-pub/board/t113/libsun8iw20p1_spinor.a
 .text.ccm_get_sscg
                0x0000000000000000       0x84 /home/ubuntu/tina5sdk-bsp/brandy/brandy-2.0/spl-pub/board/t113/libsun8iw20p1_spinor.a
 .text.ccm_set_pll_sscg
                0x0000000000000000       0x64 /home/ubuntu/tina5sdk-bsp/brandy/brandy-2.0/spl-pub/board/t113/libsun8iw20p1_spinor.a
 .text.mctl_init
                0x0000000000000000       0x94 /home/ubuntu/tina5sdk-bsp/brandy/brandy-2.0/spl-pub/board/t113/libsun8iw20p1_spinor.a
 .text.get_power_source
                0x0000000000000000        0x6 /home/ubuntu/tina5sdk-bsp/brandy/brandy-2.0/spl-pub/board/t113/libsun8iw20p1_spinor.a
 .text.set_power_reset
                0x0000000000000000        0x6 /home/ubuntu/tina5sdk-bsp/brandy/brandy-2.0/spl-pub/board/t113/libsun8iw20p1_spinor.a
 .text.probe_power_key
                0x0000000000000000       0x18 /home/ubuntu/tina5sdk-bsp/brandy/brandy-2.0/spl-pub/board/t113/libsun8iw20p1_spinor.a
 .text.set_ddr4_2v5_voltage
                0x0000000000000000        0x6 /home/ubuntu/tina5sdk-bsp/brandy/brandy-2.0/spl-pub/board/t113/libsun8iw20p1_spinor.a
 .text.set_sys_voltage_ext
                0x0000000000000000        0x6 /home/ubuntu/tina5sdk-bsp/brandy/brandy-2.0/spl-pub/board/t113/libsun8iw20p1_spinor.a
 .text.set_efuse_voltage
                0x0000000000000000       0x18 /home/ubuntu/tina5sdk-bsp/brandy/brandy-2.0/spl-pub/board/t113/libsun8iw20p1_spinor.a
 .text.axp_reg_read
                0x0000000000000000       0x18 /home/ubuntu/tina5sdk-bsp/brandy/brandy-2.0/spl-pub/board/t113/libsun8iw20p1_spinor.a
 .text.axp_reg_write
                0x0000000000000000       0x18 /home/ubuntu/tina5sdk-bsp/brandy/brandy-2.0/spl-pub/board/t113/libsun8iw20p1_spinor.a
 .text.axp1530_probe_power_key
                0x0000000000000000       0x40 /home/ubuntu/tina5sdk-bsp/brandy/brandy-2.0/spl-pub/board/t113/libsun8iw20p1_spinor.a
 .text.axp1530_set_efuse_voltage
                0x0000000000000000       0x10 /home/ubuntu/tina5sdk-bsp/brandy/brandy-2.0/spl-pub/board/t113/libsun8iw20p1_spinor.a
 .text.axp1530_reg_read
                0x0000000000000000        0xa /home/ubuntu/tina5sdk-bsp/brandy/brandy-2.0/spl-pub/board/t113/libsun8iw20p1_spinor.a
 .text.axp1530_reg_write
                0x0000000000000000        0xa /home/ubuntu/tina5sdk-bsp/brandy/brandy-2.0/spl-pub/board/t113/libsun8iw20p1_spinor.a
 .text.sid_sram_read
                0x0000000000000000       0x10 /home/ubuntu/tina5sdk-bsp/brandy/brandy-2.0/spl-pub/board/t113/libsun8iw20p1_spinor.a
 .text.sid_read_rotpk
                0x0000000000000000       0x18 /home/ubuntu/tina5sdk-bsp/brandy/brandy-2.0/spl-pub/board/t113/libsun8iw20p1_spinor.a
 .text.sid_set_security_mode
                0x0000000000000000       0x2c /home/ubuntu/tina5sdk-bsp/brandy/brandy-2.0/spl-pub/board/t113/libsun8iw20p1_spinor.a
 .text.sid_disable_jtag
                0x0000000000000000       0x18 /home/ubuntu/tina5sdk-bsp/brandy/brandy-2.0/spl-pub/board/t113/libsun8iw20p1_spinor.a
 .text.sid_probe_security_mode
                0x0000000000000000       0x14 /home/ubuntu/tina5sdk-bsp/brandy/brandy-2.0/spl-pub/board/t113/libsun8iw20p1_spinor.a
 .text.sunxi_disable_sd_boot
                0x0000000000000000       0x40 /home/ubuntu/tina5sdk-bsp/brandy/brandy-2.0/spl-pub/board/t113/libsun8iw20p1_spinor.a
 .text.dump_spinor_info
                0x0000000000000000        0x2 /home/ubuntu/tina5sdk-bsp/brandy/brandy-2.0/spl-pub/board/t113/libsun8iw20p1_spinor.a
 .text.spinor_exit
                0x0000000000000000        0xa /home/ubuntu/tina5sdk-bsp/brandy/brandy-2.0/spl-pub/board/t113/libsun8iw20p1_spinor.a
 .text.sunxi_flashmap_toc1_bak_start
                0x0000000000000000       0x20 /home/ubuntu/tina5sdk-bsp/brandy/brandy-2.0/spl-pub/board/t113/libsun8iw20p1_spinor.a
 .text.sunxi_flashmap_info_dump
                0x0000000000000000        0x4 /home/ubuntu/tina5sdk-bsp/brandy/brandy-2.0/spl-pub/board/t113/libsun8iw20p1_spinor.a
 .text          0x0000000000000000        0x0 /home/ubuntu/tina5sdk-bsp/brandy/brandy-2.0/spl-pub/nboot/main/boot0_main.o
 .data          0x0000000000000000        0x0 /home/ubuntu/tina5sdk-bsp/brandy/brandy-2.0/spl-pub/nboot/main/boot0_main.o
 .bss           0x0000000000000000        0x0 /home/ubuntu/tina5sdk-bsp/brandy/brandy-2.0/spl-pub/nboot/main/boot0_main.o
 .data          0x0000000000000000        0x0 /home/ubuntu/tina5sdk-bsp/brandy/brandy-2.0/tools/toolchain/gcc-linaro-7.2.1-2017.11-x86_64_arm-linux-gnueabi/bin/../lib/gcc/arm-linux-gnueabi/7.2.1/libgcc.a(_udivsi3.o)
 .bss           0x0000000000000000        0x0 /home/ubuntu/tina5sdk-bsp/brandy/brandy-2.0/tools/toolchain/gcc-linaro-7.2.1-2017.11-x86_64_arm-linux-gnueabi/bin/../lib/gcc/arm-linux-gnueabi/7.2.1/libgcc.a(_udivsi3.o)
 .data          0x0000000000000000        0x0 /home/ubuntu/tina5sdk-bsp/brandy/brandy-2.0/tools/toolchain/gcc-linaro-7.2.1-2017.11-x86_64_arm-linux-gnueabi/bin/../lib/gcc/arm-linux-gnueabi/7.2.1/libgcc.a(_divsi3.o)
 .bss           0x0000000000000000        0x0 /home/ubuntu/tina5sdk-bsp/brandy/brandy-2.0/tools/toolchain/gcc-linaro-7.2.1-2017.11-x86_64_arm-linux-gnueabi/bin/../lib/gcc/arm-linux-gnueabi/7.2.1/libgcc.a(_divsi3.o)
 .text          0x0000000000000000      0x21c /home/ubuntu/tina5sdk-bsp/brandy/brandy-2.0/tools/toolchain/gcc-linaro-7.2.1-2017.11-x86_64_arm-linux-gnueabi/bin/../lib/gcc/arm-linux-gnueabi/7.2.1/libgcc.a(_arm_addsubsf3.o)
 .data          0x0000000000000000        0x0 /home/ubuntu/tina5sdk-bsp/brandy/brandy-2.0/tools/toolchain/gcc-linaro-7.2.1-2017.11-x86_64_arm-linux-gnueabi/bin/../lib/gcc/arm-linux-gnueabi/7.2.1/libgcc.a(_arm_addsubsf3.o)
 .bss           0x0000000000000000        0x0 /home/ubuntu/tina5sdk-bsp/brandy/brandy-2.0/tools/toolchain/gcc-linaro-7.2.1-2017.11-x86_64_arm-linux-gnueabi/bin/../lib/gcc/arm-linux-gnueabi/7.2.1/libgcc.a(_arm_addsubsf3.o)
 .note.GNU-stack
                0x0000000000000000        0x0 /home/ubuntu/tina5sdk-bsp/brandy/brandy-2.0/tools/toolchain/gcc-linaro-7.2.1-2017.11-x86_64_arm-linux-gnueabi/bin/../lib/gcc/arm-linux-gnueabi/7.2.1/libgcc.a(_arm_addsubsf3.o)
 .debug_line    0x0000000000000000      0x1a2 /home/ubuntu/tina5sdk-bsp/brandy/brandy-2.0/tools/toolchain/gcc-linaro-7.2.1-2017.11-x86_64_arm-linux-gnueabi/bin/../lib/gcc/arm-linux-gnueabi/7.2.1/libgcc.a(_arm_addsubsf3.o)
 .debug_info    0x0000000000000000      0x1cc /home/ubuntu/tina5sdk-bsp/brandy/brandy-2.0/tools/toolchain/gcc-linaro-7.2.1-2017.11-x86_64_arm-linux-gnueabi/bin/../lib/gcc/arm-linux-gnueabi/7.2.1/libgcc.a(_arm_addsubsf3.o)
 .debug_abbrev  0x0000000000000000       0x14 /home/ubuntu/tina5sdk-bsp/brandy/brandy-2.0/tools/toolchain/gcc-linaro-7.2.1-2017.11-x86_64_arm-linux-gnueabi/bin/../lib/gcc/arm-linux-gnueabi/7.2.1/libgcc.a(_arm_addsubsf3.o)
 .debug_aranges
                0x0000000000000000       0x20 /home/ubuntu/tina5sdk-bsp/brandy/brandy-2.0/tools/toolchain/gcc-linaro-7.2.1-2017.11-x86_64_arm-linux-gnueabi/bin/../lib/gcc/arm-linux-gnueabi/7.2.1/libgcc.a(_arm_addsubsf3.o)
 .debug_frame   0x0000000000000000       0x4c /home/ubuntu/tina5sdk-bsp/brandy/brandy-2.0/tools/toolchain/gcc-linaro-7.2.1-2017.11-x86_64_arm-linux-gnueabi/bin/../lib/gcc/arm-linux-gnueabi/7.2.1/libgcc.a(_arm_addsubsf3.o)
 .ARM.attributes
                0x0000000000000000       0x1f /home/ubuntu/tina5sdk-bsp/brandy/brandy-2.0/tools/toolchain/gcc-linaro-7.2.1-2017.11-x86_64_arm-linux-gnueabi/bin/../lib/gcc/arm-linux-gnueabi/7.2.1/libgcc.a(_arm_addsubsf3.o)
 .text          0x0000000000000000      0x2a0 /home/ubuntu/tina5sdk-bsp/brandy/brandy-2.0/tools/toolchain/gcc-linaro-7.2.1-2017.11-x86_64_arm-linux-gnueabi/bin/../lib/gcc/arm-linux-gnueabi/7.2.1/libgcc.a(_arm_muldivsf3.o)
 .data          0x0000000000000000        0x0 /home/ubuntu/tina5sdk-bsp/brandy/brandy-2.0/tools/toolchain/gcc-linaro-7.2.1-2017.11-x86_64_arm-linux-gnueabi/bin/../lib/gcc/arm-linux-gnueabi/7.2.1/libgcc.a(_arm_muldivsf3.o)
 .bss           0x0000000000000000        0x0 /home/ubuntu/tina5sdk-bsp/brandy/brandy-2.0/tools/toolchain/gcc-linaro-7.2.1-2017.11-x86_64_arm-linux-gnueabi/bin/../lib/gcc/arm-linux-gnueabi/7.2.1/libgcc.a(_arm_muldivsf3.o)
 .note.GNU-stack
                0x0000000000000000        0x0 /home/ubuntu/tina5sdk-bsp/brandy/brandy-2.0/tools/toolchain/gcc-linaro-7.2.1-2017.11-x86_64_arm-linux-gnueabi/bin/../lib/gcc/arm-linux-gnueabi/7.2.1/libgcc.a(_arm_muldivsf3.o)
 .debug_line    0x0000000000000000      0x1c5 /home/ubuntu/tina5sdk-bsp/brandy/brandy-2.0/tools/toolchain/gcc-linaro-7.2.1-2017.11-x86_64_arm-linux-gnueabi/bin/../lib/gcc/arm-linux-gnueabi/7.2.1/libgcc.a(_arm_muldivsf3.o)
 .debug_info    0x0000000000000000      0x1cc /home/ubuntu/tina5sdk-bsp/brandy/brandy-2.0/tools/toolchain/gcc-linaro-7.2.1-2017.11-x86_64_arm-linux-gnueabi/bin/../lib/gcc/arm-linux-gnueabi/7.2.1/libgcc.a(_arm_muldivsf3.o)
 .debug_abbrev  0x0000000000000000       0x14 /home/ubuntu/tina5sdk-bsp/brandy/brandy-2.0/tools/toolchain/gcc-linaro-7.2.1-2017.11-x86_64_arm-linux-gnueabi/bin/../lib/gcc/arm-linux-gnueabi/7.2.1/libgcc.a(_arm_muldivsf3.o)
 .debug_aranges
                0x0000000000000000       0x20 /home/ubuntu/tina5sdk-bsp/brandy/brandy-2.0/tools/toolchain/gcc-linaro-7.2.1-2017.11-x86_64_arm-linux-gnueabi/bin/../lib/gcc/arm-linux-gnueabi/7.2.1/libgcc.a(_arm_muldivsf3.o)
 .debug_frame   0x0000000000000000       0x38 /home/ubuntu/tina5sdk-bsp/brandy/brandy-2.0/tools/toolchain/gcc-linaro-7.2.1-2017.11-x86_64_arm-linux-gnueabi/bin/../lib/gcc/arm-linux-gnueabi/7.2.1/libgcc.a(_arm_muldivsf3.o)
 .ARM.attributes
                0x0000000000000000       0x1f /home/ubuntu/tina5sdk-bsp/brandy/brandy-2.0/tools/toolchain/gcc-linaro-7.2.1-2017.11-x86_64_arm-linux-gnueabi/bin/../lib/gcc/arm-linux-gnueabi/7.2.1/libgcc.a(_arm_muldivsf3.o)
 .text          0x0000000000000000       0x4c /home/ubuntu/tina5sdk-bsp/brandy/brandy-2.0/tools/toolchain/gcc-linaro-7.2.1-2017.11-x86_64_arm-linux-gnueabi/bin/../lib/gcc/arm-linux-gnueabi/7.2.1/libgcc.a(_arm_fixsfsi.o)
 .data          0x0000000000000000        0x0 /home/ubuntu/tina5sdk-bsp/brandy/brandy-2.0/tools/toolchain/gcc-linaro-7.2.1-2017.11-x86_64_arm-linux-gnueabi/bin/../lib/gcc/arm-linux-gnueabi/7.2.1/libgcc.a(_arm_fixsfsi.o)
 .bss           0x0000000000000000        0x0 /home/ubuntu/tina5sdk-bsp/brandy/brandy-2.0/tools/toolchain/gcc-linaro-7.2.1-2017.11-x86_64_arm-linux-gnueabi/bin/../lib/gcc/arm-linux-gnueabi/7.2.1/libgcc.a(_arm_fixsfsi.o)
 .note.GNU-stack
                0x0000000000000000        0x0 /home/ubuntu/tina5sdk-bsp/brandy/brandy-2.0/tools/toolchain/gcc-linaro-7.2.1-2017.11-x86_64_arm-linux-gnueabi/bin/../lib/gcc/arm-linux-gnueabi/7.2.1/libgcc.a(_arm_fixsfsi.o)
 .debug_line    0x0000000000000000      0x102 /home/ubuntu/tina5sdk-bsp/brandy/brandy-2.0/tools/toolchain/gcc-linaro-7.2.1-2017.11-x86_64_arm-linux-gnueabi/bin/../lib/gcc/arm-linux-gnueabi/7.2.1/libgcc.a(_arm_fixsfsi.o)
 .debug_info    0x0000000000000000      0x1cc /home/ubuntu/tina5sdk-bsp/brandy/brandy-2.0/tools/toolchain/gcc-linaro-7.2.1-2017.11-x86_64_arm-linux-gnueabi/bin/../lib/gcc/arm-linux-gnueabi/7.2.1/libgcc.a(_arm_fixsfsi.o)
 .debug_abbrev  0x0000000000000000       0x14 /home/ubuntu/tina5sdk-bsp/brandy/brandy-2.0/tools/toolchain/gcc-linaro-7.2.1-2017.11-x86_64_arm-linux-gnueabi/bin/../lib/gcc/arm-linux-gnueabi/7.2.1/libgcc.a(_arm_fixsfsi.o)
 .debug_aranges
                0x0000000000000000       0x20 /home/ubuntu/tina5sdk-bsp/brandy/brandy-2.0/tools/toolchain/gcc-linaro-7.2.1-2017.11-x86_64_arm-linux-gnueabi/bin/../lib/gcc/arm-linux-gnueabi/7.2.1/libgcc.a(_arm_fixsfsi.o)
 .debug_frame   0x0000000000000000       0x24 /home/ubuntu/tina5sdk-bsp/brandy/brandy-2.0/tools/toolchain/gcc-linaro-7.2.1-2017.11-x86_64_arm-linux-gnueabi/bin/../lib/gcc/arm-linux-gnueabi/7.2.1/libgcc.a(_arm_fixsfsi.o)
 .ARM.attributes
                0x0000000000000000       0x1f /home/ubuntu/tina5sdk-bsp/brandy/brandy-2.0/tools/toolchain/gcc-linaro-7.2.1-2017.11-x86_64_arm-linux-gnueabi/bin/../lib/gcc/arm-linux-gnueabi/7.2.1/libgcc.a(_arm_fixsfsi.o)
 .data          0x0000000000000000        0x0 /home/ubuntu/tina5sdk-bsp/brandy/brandy-2.0/tools/toolchain/gcc-linaro-7.2.1-2017.11-x86_64_arm-linux-gnueabi/bin/../lib/gcc/arm-linux-gnueabi/7.2.1/libgcc.a(_dvmd_lnx.o)
 .bss           0x0000000000000000        0x0 /home/ubuntu/tina5sdk-bsp/brandy/brandy-2.0/tools/toolchain/gcc-linaro-7.2.1-2017.11-x86_64_arm-linux-gnueabi/bin/../lib/gcc/arm-linux-gnueabi/7.2.1/libgcc.a(_dvmd_lnx.o)
 .text          0x0000000000000000        0x0 main/boot0_head.o
 .data          0x0000000000000000        0x0 main/boot0_head.o
 .bss           0x0000000000000000        0x0 main/boot0_head.o
 .data          0x0000000000000000        0x0 /home/ubuntu/tina5sdk-bsp/brandy/brandy-2.0/spl-pub/arch/arm/cpu/armv7/boot0_entry.o
 .bss           0x0000000000000000        0x0 /home/ubuntu/tina5sdk-bsp/brandy/brandy-2.0/spl-pub/arch/arm/cpu/armv7/boot0_entry.o

Memory Configuration

Name             Origin             Length             Attributes
*default*        0x0000000000000000 0xffffffffffffffff

Linker script and memory map

LOAD /home/ubuntu/tina5sdk-bsp/brandy/brandy-2.0/spl-pub/board/t113/libsun8iw20p1_spinor.a
LOAD /home/ubuntu/tina5sdk-bsp/brandy/brandy-2.0/spl-pub/nboot/main/boot0_main.o
LOAD /home/ubuntu/tina5sdk-bsp/brandy/brandy-2.0/tools/toolchain/gcc-linaro-7.2.1-2017.11-x86_64_arm-linux-gnueabi/bin/../lib/gcc/arm-linux-gnueabi/7.2.1/libgcc.a
                0x0000000000020000                . = 0x20000
                0x0000000000020000                . = ALIGN (0x4)

.head           0x0000000000020000      0x3c8
 main/boot0_head.o(.rodata)
 .rodata        0x0000000000020000      0x3c8 main/boot0_head.o
                0x0000000000020000                BT0_head
                0x00000000000203c8                . = ALIGN (0x1)

.text           0x00000000000203c8      0xb24
 /home/ubuntu/tina5sdk-bsp/brandy/brandy-2.0/spl-pub/arch/arm/cpu/armv7/boot0_entry.o(.text)
 .text          0x00000000000203c8       0x64 /home/ubuntu/tina5sdk-bsp/brandy/brandy-2.0/spl-pub/arch/arm/cpu/armv7/boot0_entry.o
                0x00000000000203c8                _start
 *(.text)
 .text          0x000000000002042c      0x58c /home/ubuntu/tina5sdk-bsp/brandy/brandy-2.0/spl-pub/board/t113/libsun8iw20p1_spinor.a
                0x000000000002042c                __v7_flush_dcache_all
                0x00000000000204c8                v7_flush_dcache_all
                0x00000000000204f4                memset0
                0x00000000000205ac                memcpy0
                0x000000000002095c                crc_16
                0x0000000000020980                disturb_coding
                0x0000000000020992                id_judge_fun
 .text          0x00000000000209b8      0x278 /home/ubuntu/tina5sdk-bsp/brandy/brandy-2.0/tools/toolchain/gcc-linaro-7.2.1-2017.11-x86_64_arm-linux-gnueabi/bin/../lib/gcc/arm-linux-gnueabi/7.2.1/libgcc.a(_udivsi3.o)
                0x00000000000209b8                __udivsi3
                0x00000000000209b8                __aeabi_uidiv
                0x0000000000020c14                __aeabi_uidivmod
 .text          0x0000000000020c30      0x2b0 /home/ubuntu/tina5sdk-bsp/brandy/brandy-2.0/tools/toolchain/gcc-linaro-7.2.1-2017.11-x86_64_arm-linux-gnueabi/bin/../lib/gcc/arm-linux-gnueabi/7.2.1/libgcc.a(_divsi3.o)
                0x0000000000020c30                __aeabi_idiv
                0x0000000000020c30                __divsi3
                0x0000000000020ec4                __aeabi_idivmod
 .text          0x0000000000020ee0        0xc /home/ubuntu/tina5sdk-bsp/brandy/brandy-2.0/tools/toolchain/gcc-linaro-7.2.1-2017.11-x86_64_arm-linux-gnueabi/bin/../lib/gcc/arm-linux-gnueabi/7.2.1/libgcc.a(_dvmd_lnx.o)
                0x0000000000020ee0                __aeabi_ldiv0
                0x0000000000020ee0                __aeabi_idiv0

.glue_7         0x0000000000020eec        0x0
 .glue_7        0x0000000000020eec        0x0 linker stubs

.glue_7t        0x0000000000020eec        0x0
 .glue_7t       0x0000000000020eec        0x0 linker stubs

.vfp11_veneer   0x0000000000020eec        0x0
 .vfp11_veneer  0x0000000000020eec        0x0 linker stubs

.v4_bx          0x0000000000020eec        0x0
 .v4_bx         0x0000000000020eec        0x0 linker stubs

.text.get_sys_ticks
                0x0000000000020eec       0x14
 .text.get_sys_ticks
                0x0000000000020eec       0x14 /home/ubuntu/tina5sdk-bsp/brandy/brandy-2.0/spl-pub/board/t113/libsun8iw20p1_spinor.a
                0x0000000000020eec                get_sys_ticks

.text.timer_get_us
                0x0000000000020f00       0x14
 .text.timer_get_us
                0x0000000000020f00       0x14 /home/ubuntu/tina5sdk-bsp/brandy/brandy-2.0/spl-pub/board/t113/libsun8iw20p1_spinor.a
                0x0000000000020f00                timer_get_us

.text.udelay    0x0000000000020f14       0x24
 .text.udelay   0x0000000000020f14       0x24 /home/ubuntu/tina5sdk-bsp/brandy/brandy-2.0/spl-pub/board/t113/libsun8iw20p1_spinor.a
                0x0000000000020f14                udelay

.text.mdelay    0x0000000000020f38        0xa
 .text.mdelay   0x0000000000020f38        0xa /home/ubuntu/tina5sdk-bsp/brandy/brandy-2.0/spl-pub/board/t113/libsun8iw20p1_spinor.a
                0x0000000000020f38                mdelay

.text.__usdelay
                0x0000000000020f42        0x4
 .text.__usdelay
                0x0000000000020f42        0x4 /home/ubuntu/tina5sdk-bsp/brandy/brandy-2.0/spl-pub/board/t113/libsun8iw20p1_spinor.a
                0x0000000000020f42                __usdelay

.text.mmu_enable
                0x0000000000020f46       0x8c
 .text.mmu_enable
                0x0000000000020f46       0x8c /home/ubuntu/tina5sdk-bsp/brandy/brandy-2.0/spl-pub/board/t113/libsun8iw20p1_spinor.a
                0x0000000000020f46                mmu_enable

.text.mmu_disable
                0x0000000000020fd2       0x30
 .text.mmu_disable
                0x0000000000020fd2       0x30 /home/ubuntu/tina5sdk-bsp/brandy/brandy-2.0/spl-pub/board/t113/libsun8iw20p1_spinor.a
                0x0000000000020fd2                mmu_disable

.text.data_sync_barrier
                0x0000000000021002        0xa
 .text.data_sync_barrier
                0x0000000000021002        0xa /home/ubuntu/tina5sdk-bsp/brandy/brandy-2.0/spl-pub/board/t113/libsun8iw20p1_spinor.a
                0x0000000000021002                data_sync_barrier

.text.invalidate_dcache_range
                0x000000000002100c        0x2
 .text.invalidate_dcache_range
                0x000000000002100c        0x2 /home/ubuntu/tina5sdk-bsp/brandy/brandy-2.0/spl-pub/board/t113/libsun8iw20p1_spinor.a
                0x000000000002100c                invalidate_dcache_range

.text.flush_dcache_range
                0x000000000002100e        0x2
 .text.flush_dcache_range
                0x000000000002100e        0x2 /home/ubuntu/tina5sdk-bsp/brandy/brandy-2.0/spl-pub/board/t113/libsun8iw20p1_spinor.a
                0x000000000002100e                flush_dcache_range

.text.boot0_jmp
                0x0000000000021010        0xc
 .text.boot0_jmp
                0x0000000000021010        0xc /home/ubuntu/tina5sdk-bsp/brandy/brandy-2.0/spl-pub/board/t113/libsun8iw20p1_spinor.a
                0x0000000000021010                boot0_jmp

.text.boot0_jmp_optee
                0x000000000002101c        0xc
 .text.boot0_jmp_optee
                0x000000000002101c        0xc /home/ubuntu/tina5sdk-bsp/brandy/brandy-2.0/spl-pub/board/t113/libsun8iw20p1_spinor.a
                0x000000000002101c                boot0_jmp_optee

.text.boot0_jmp_monitor
                0x0000000000021028        0x2
 .text.boot0_jmp_monitor
                0x0000000000021028        0x2 /home/ubuntu/tina5sdk-bsp/brandy/brandy-2.0/spl-pub/board/t113/libsun8iw20p1_spinor.a
                0x0000000000021028                boot0_jmp_monitor

.text.boot0_jmp_opensbi
                0x000000000002102a        0x4
 .text.boot0_jmp_opensbi
                0x000000000002102a        0x4 /home/ubuntu/tina5sdk-bsp/brandy/brandy-2.0/spl-pub/board/t113/libsun8iw20p1_spinor.a
                0x000000000002102a                boot0_jmp_opensbi

.text.sunxi_board_init
                0x0000000000021030       0x44
 .text.sunxi_board_init
                0x0000000000021030       0x44 /home/ubuntu/tina5sdk-bsp/brandy/brandy-2.0/spl-pub/board/t113/libsun8iw20p1_spinor.a
                0x0000000000021030                sunxi_board_init

.text.sunxi_board_late_init
                0x0000000000021074       0x16
 .text.sunxi_board_late_init
                0x0000000000021074       0x16 /home/ubuntu/tina5sdk-bsp/brandy/brandy-2.0/spl-pub/board/t113/libsun8iw20p1_spinor.a
                0x0000000000021074                sunxi_board_late_init

.text.sunxi_board_exit
                0x000000000002108a        0x4
 .text.sunxi_board_exit
                0x000000000002108a        0x4 /home/ubuntu/tina5sdk-bsp/brandy/brandy-2.0/spl-pub/board/t113/libsun8iw20p1_spinor.a
                0x000000000002108a                sunxi_board_exit

.text.set_aldo_analog
                0x0000000000021090       0x2c
 .text.set_aldo_analog
                0x0000000000021090       0x2c /home/ubuntu/tina5sdk-bsp/brandy/brandy-2.0/spl-pub/board/t113/libsun8iw20p1_spinor.a
                0x0000000000021090                set_aldo_analog

.text.set_ldoa_analog
                0x00000000000210bc       0x2c
 .text.set_ldoa_analog
                0x00000000000210bc       0x2c /home/ubuntu/tina5sdk-bsp/brandy/brandy-2.0/spl-pub/board/t113/libsun8iw20p1_spinor.a
                0x00000000000210bc                set_ldoa_analog

.text.sunxi_board_pll_init
                0x00000000000210e8      0x41c
 .text.sunxi_board_pll_init
                0x00000000000210e8      0x41c /home/ubuntu/tina5sdk-bsp/brandy/brandy-2.0/spl-pub/board/t113/libsun8iw20p1_spinor.a
                0x00000000000210e8                sunxi_board_pll_init

.text.sunxi_board_clock_reset
                0x0000000000021504       0x40
 .text.sunxi_board_clock_reset
                0x0000000000021504       0x40 /home/ubuntu/tina5sdk-bsp/brandy/brandy-2.0/spl-pub/board/t113/libsun8iw20p1_spinor.a
                0x0000000000021504                sunxi_board_clock_reset

.text.sunxi_clock_init_uart
                0x0000000000021544       0x48
 .text.sunxi_clock_init_uart
                0x0000000000021544       0x48 /home/ubuntu/tina5sdk-bsp/brandy/brandy-2.0/spl-pub/board/t113/libsun8iw20p1_spinor.a
                0x0000000000021544                sunxi_clock_init_uart

.text.strncmp   0x000000000002158c       0x22
 .text.strncmp  0x000000000002158c       0x22 /home/ubuntu/tina5sdk-bsp/brandy/brandy-2.0/spl-pub/board/t113/libsun8iw20p1_spinor.a
                0x000000000002158c                strncmp

.text.strlen    0x00000000000215ae       0x10
 .text.strlen   0x00000000000215ae       0x10 /home/ubuntu/tina5sdk-bsp/brandy/brandy-2.0/spl-pub/board/t113/libsun8iw20p1_spinor.a
                0x00000000000215ae                strlen

.text.memset    0x00000000000215c0        0xc
 .text.memset   0x00000000000215c0        0xc /home/ubuntu/tina5sdk-bsp/brandy/brandy-2.0/spl-pub/board/t113/libsun8iw20p1_spinor.a
                0x00000000000215c0                memset

.text.memcpy    0x00000000000215cc        0xc
 .text.memcpy   0x00000000000215cc        0xc /home/ubuntu/tina5sdk-bsp/brandy/brandy-2.0/spl-pub/board/t113/libsun8iw20p1_spinor.a
                0x00000000000215cc                memcpy

.text.putc_outstr
                0x00000000000215d8        0xa
 .text.putc_outstr
                0x00000000000215d8        0xa /home/ubuntu/tina5sdk-bsp/brandy/brandy-2.0/spl-pub/board/t113/libsun8iw20p1_spinor.a

.text.putc_normal
                0x00000000000215e2        0x6
 .text.putc_normal
                0x00000000000215e2        0x6 /home/ubuntu/tina5sdk-bsp/brandy/brandy-2.0/spl-pub/board/t113/libsun8iw20p1_spinor.a

.text.div_out   0x00000000000215e8       0x32
 .text.div_out  0x00000000000215e8       0x32 /home/ubuntu/tina5sdk-bsp/brandy/brandy-2.0/spl-pub/board/t113/libsun8iw20p1_spinor.a

.text._vprintf  0x000000000002161c      0x1e4
 .text._vprintf
                0x000000000002161c      0x1e4 /home/ubuntu/tina5sdk-bsp/brandy/brandy-2.0/spl-pub/board/t113/libsun8iw20p1_spinor.a

.text.sunxi_set_printf_debug_mode
                0x0000000000021800       0x28
 .text.sunxi_set_printf_debug_mode
                0x0000000000021800       0x28 /home/ubuntu/tina5sdk-bsp/brandy/brandy-2.0/spl-pub/board/t113/libsun8iw20p1_spinor.a
                0x0000000000021800                sunxi_set_printf_debug_mode

.text.sunxi_get_debug_mode_for_uboot
                0x0000000000021828       0x18
 .text.sunxi_get_debug_mode_for_uboot
                0x0000000000021828       0x18 /home/ubuntu/tina5sdk-bsp/brandy/brandy-2.0/spl-pub/board/t113/libsun8iw20p1_spinor.a
                0x0000000000021828                sunxi_get_debug_mode_for_uboot

.text.sprintf   0x0000000000021840       0x2c
 .text.sprintf  0x0000000000021840       0x2c /home/ubuntu/tina5sdk-bsp/brandy/brandy-2.0/spl-pub/board/t113/libsun8iw20p1_spinor.a
                0x0000000000021840                sprintf

.text.printf    0x000000000002186c       0x54
 .text.printf   0x000000000002186c       0x54 /home/ubuntu/tina5sdk-bsp/brandy/brandy-2.0/spl-pub/board/t113/libsun8iw20p1_spinor.a
                0x000000000002186c                printf

.text.pr_emerg  0x00000000000218c0       0x24
 .text.pr_emerg
                0x00000000000218c0       0x24 /home/ubuntu/tina5sdk-bsp/brandy/brandy-2.0/spl-pub/board/t113/libsun8iw20p1_spinor.a
                0x00000000000218c0                pr_emerg

.text.get_uart_input
                0x00000000000218e4       0x24
 .text.get_uart_input
                0x00000000000218e4       0x24 /home/ubuntu/tina5sdk-bsp/brandy/brandy-2.0/spl-pub/board/t113/libsun8iw20p1_spinor.a
                0x00000000000218e4                get_uart_input

.text.set_uboot_func_mask
                0x0000000000021908       0x10
 .text.set_uboot_func_mask
                0x0000000000021908       0x10 /home/ubuntu/tina5sdk-bsp/brandy/brandy-2.0/spl-pub/board/t113/libsun8iw20p1_spinor.a
                0x0000000000021908                set_uboot_func_mask

.text.get_uboot_func_mask
                0x0000000000021918        0xc
 .text.get_uboot_func_mask
                0x0000000000021918        0xc /home/ubuntu/tina5sdk-bsp/brandy/brandy-2.0/spl-pub/board/t113/libsun8iw20p1_spinor.a
                0x0000000000021918                get_uboot_func_mask

.text.sunxi_board_init_early
                0x0000000000021924        0x4
 .text.sunxi_board_init_early
                0x0000000000021924        0x4 /home/ubuntu/tina5sdk-bsp/brandy/brandy-2.0/spl-pub/board/t113/libsun8iw20p1_spinor.a
                0x0000000000021924                sunxi_board_init_early

.text.raise     0x0000000000021928        0x4
 .text.raise    0x0000000000021928        0x4 /home/ubuntu/tina5sdk-bsp/brandy/brandy-2.0/spl-pub/board/t113/libsun8iw20p1_spinor.a
                0x0000000000021928                raise

.text.malloc_init
                0x000000000002192c       0x1c
 .text.malloc_init
                0x000000000002192c       0x1c /home/ubuntu/tina5sdk-bsp/brandy/brandy-2.0/spl-pub/board/t113/libsun8iw20p1_spinor.a
                0x000000000002192c                malloc_init

.text.malloc    0x0000000000021948       0x4c
 .text.malloc   0x0000000000021948       0x4c /home/ubuntu/tina5sdk-bsp/brandy/brandy-2.0/spl-pub/board/t113/libsun8iw20p1_spinor.a
                0x0000000000021948                malloc

.text.free      0x0000000000021994       0x20
 .text.free     0x0000000000021994       0x20 /home/ubuntu/tina5sdk-bsp/brandy/brandy-2.0/spl-pub/board/t113/libsun8iw20p1_spinor.a
                0x0000000000021994                free

.text.sunxi_get_iobase
                0x00000000000219b4        0x2
 .text.sunxi_get_iobase
                0x00000000000219b4        0x2 /home/ubuntu/tina5sdk-bsp/brandy/brandy-2.0/spl-pub/board/t113/libsun8iw20p1_spinor.a
                0x00000000000219b4                sunxi_get_iobase

.text.sunxi_get_lw32_addr
                0x00000000000219b6        0x2
 .text.sunxi_get_lw32_addr
                0x00000000000219b6        0x2 /home/ubuntu/tina5sdk-bsp/brandy/brandy-2.0/spl-pub/board/t113/libsun8iw20p1_spinor.a
                0x00000000000219b6                sunxi_get_lw32_addr

.text.sunxi_serial_init
                0x00000000000219b8       0x54
 .text.sunxi_serial_init
                0x00000000000219b8       0x54 /home/ubuntu/tina5sdk-bsp/brandy/brandy-2.0/spl-pub/board/t113/libsun8iw20p1_spinor.a
                0x00000000000219b8                sunxi_serial_init

.text.sunxi_serial_putc
                0x0000000000021a0c       0x14
 .text.sunxi_serial_putc
                0x0000000000021a0c       0x14 /home/ubuntu/tina5sdk-bsp/brandy/brandy-2.0/spl-pub/board/t113/libsun8iw20p1_spinor.a
                0x0000000000021a0c                sunxi_serial_putc

.text.sunxi_serial_getc
                0x0000000000021a20       0x14
 .text.sunxi_serial_getc
                0x0000000000021a20       0x14 /home/ubuntu/tina5sdk-bsp/brandy/brandy-2.0/spl-pub/board/t113/libsun8iw20p1_spinor.a
                0x0000000000021a20                sunxi_serial_getc

.text.sunxi_serial_tstc
                0x0000000000021a34       0x10
 .text.sunxi_serial_tstc
                0x0000000000021a34       0x10 /home/ubuntu/tina5sdk-bsp/brandy/brandy-2.0/spl-pub/board/t113/libsun8iw20p1_spinor.a
                0x0000000000021a34                sunxi_serial_tstc

.text.sunxi_gpio_set_cfgbank
                0x0000000000021a44       0x22
 .text.sunxi_gpio_set_cfgbank
                0x0000000000021a44       0x22 /home/ubuntu/tina5sdk-bsp/brandy/brandy-2.0/spl-pub/board/t113/libsun8iw20p1_spinor.a
                0x0000000000021a44                sunxi_gpio_set_cfgbank

.text.sunxi_gpio_set_cfgpin
                0x0000000000021a68       0x28
 .text.sunxi_gpio_set_cfgpin
                0x0000000000021a68       0x28 /home/ubuntu/tina5sdk-bsp/brandy/brandy-2.0/spl-pub/board/t113/libsun8iw20p1_spinor.a
                0x0000000000021a68                sunxi_gpio_set_cfgpin

.text.sunxi_gpio_set_pull
                0x0000000000021a90       0x48
 .text.sunxi_gpio_set_pull
                0x0000000000021a90       0x48 /home/ubuntu/tina5sdk-bsp/brandy/brandy-2.0/spl-pub/board/t113/libsun8iw20p1_spinor.a
                0x0000000000021a90                sunxi_gpio_set_pull

.text.boot_set_gpio
                0x0000000000021ad8      0x368
 .text.boot_set_gpio
                0x0000000000021ad8      0x368 /home/ubuntu/tina5sdk-bsp/brandy/brandy-2.0/spl-pub/board/t113/libsun8iw20p1_spinor.a
                0x0000000000021ad8                boot_set_gpio

.text.rtc_write_data
                0x0000000000021e40       0x1c
 .text.rtc_write_data
                0x0000000000021e40       0x1c /home/ubuntu/tina5sdk-bsp/brandy/brandy-2.0/spl-pub/board/t113/libsun8iw20p1_spinor.a
                0x0000000000021e40                rtc_write_data

.text.rtc_read_data
                0x0000000000021e5c       0x18
 .text.rtc_read_data
                0x0000000000021e5c       0x18 /home/ubuntu/tina5sdk-bsp/brandy/brandy-2.0/spl-pub/board/t113/libsun8iw20p1_spinor.a
                0x0000000000021e5c                rtc_read_data

.text._rtc_clear_data
                0x0000000000021e74       0x1c
 .text._rtc_clear_data
                0x0000000000021e74       0x1c /home/ubuntu/tina5sdk-bsp/brandy/brandy-2.0/spl-pub/board/t113/libsun8iw20p1_spinor.a

.text.rtc_probe_fel_flag
                0x0000000000021e90       0x78
 .text.rtc_probe_fel_flag
                0x0000000000021e90       0x78 /home/ubuntu/tina5sdk-bsp/brandy/brandy-2.0/spl-pub/board/t113/libsun8iw20p1_spinor.a
                0x0000000000021e90                rtc_probe_fel_flag

.text.rtc_clear_fel_flag
                0x0000000000021f08        0x6
 .text.rtc_clear_fel_flag
                0x0000000000021f08        0x6 /home/ubuntu/tina5sdk-bsp/brandy/brandy-2.0/spl-pub/board/t113/libsun8iw20p1_spinor.a
                0x0000000000021f08                rtc_clear_fel_flag

.text.spi_mem_exec_op
                0x0000000000021f0e       0xe0
 .text.spi_mem_exec_op
                0x0000000000021f0e       0xe0 /home/ubuntu/tina5sdk-bsp/brandy/brandy-2.0/spl-pub/board/t113/libsun8iw20p1_spinor.a
                0x0000000000021f0e                spi_mem_exec_op

.text.spi_set_bc_tc_stc.constprop.15
                0x0000000000021ff0       0x50
 .text.spi_set_bc_tc_stc.constprop.15
                0x0000000000021ff0       0x50 /home/ubuntu/tina5sdk-bsp/brandy/brandy-2.0/spl-pub/board/t113/libsun8iw20p1_spinor.a

.text.sunxi_spi_clk_init.constprop.20
                0x0000000000022040       0x80
 .text.sunxi_spi_clk_init.constprop.20
                0x0000000000022040       0x80 /home/ubuntu/tina5sdk-bsp/brandy/brandy-2.0/spl-pub/board/t113/libsun8iw20p1_spinor.a

.text.sunxi_get_spic_clk.constprop.23
                0x00000000000220c0       0x40
 .text.sunxi_get_spic_clk.constprop.23
                0x00000000000220c0       0x40 /home/ubuntu/tina5sdk-bsp/brandy/brandy-2.0/spl-pub/board/t113/libsun8iw20p1_spinor.a

.text.spi_set_sample_mode
                0x0000000000022100       0x78
 .text.spi_set_sample_mode
                0x0000000000022100       0x78 /home/ubuntu/tina5sdk-bsp/brandy/brandy-2.0/spl-pub/board/t113/libsun8iw20p1_spinor.a
                0x0000000000022100                spi_set_sample_mode

.text.spi_set_sample_delay
                0x0000000000022178       0x18
 .text.spi_set_sample_delay
                0x0000000000022178       0x18 /home/ubuntu/tina5sdk-bsp/brandy/brandy-2.0/spl-pub/board/t113/libsun8iw20p1_spinor.a
                0x0000000000022178                spi_set_sample_delay

.text.spi_config_tc.isra.3
                0x0000000000022190       0x70
 .text.spi_config_tc.isra.3
                0x0000000000022190       0x70 /home/ubuntu/tina5sdk-bsp/brandy/brandy-2.0/spl-pub/board/t113/libsun8iw20p1_spinor.a

.text.spi_samp_dl_sw_status
                0x0000000000022200       0x1a
 .text.spi_samp_dl_sw_status
                0x0000000000022200       0x1a /home/ubuntu/tina5sdk-bsp/brandy/brandy-2.0/spl-pub/board/t113/libsun8iw20p1_spinor.a
                0x0000000000022200                spi_samp_dl_sw_status

.text.spi_samp_mode
                0x000000000002221a       0x1a
 .text.spi_samp_mode
                0x000000000002221a       0x1a /home/ubuntu/tina5sdk-bsp/brandy/brandy-2.0/spl-pub/board/t113/libsun8iw20p1_spinor.a
                0x000000000002221a                spi_samp_mode

.text.spi_claim_bus
                0x0000000000022234       0xd0
 .text.spi_claim_bus
                0x0000000000022234       0xd0 /home/ubuntu/tina5sdk-bsp/brandy/brandy-2.0/spl-pub/board/t113/libsun8iw20p1_spinor.a
                0x0000000000022234                spi_claim_bus

.text.spi_dma_init
                0x0000000000022304       0x94
 .text.spi_dma_init
                0x0000000000022304       0x94 /home/ubuntu/tina5sdk-bsp/brandy/brandy-2.0/spl-pub/board/t113/libsun8iw20p1_spinor.a
                0x0000000000022304                spi_dma_init

.text.set_spi_clk
                0x0000000000022398       0x50
 .text.set_spi_clk
                0x0000000000022398       0x50 /home/ubuntu/tina5sdk-bsp/brandy/brandy-2.0/spl-pub/board/t113/libsun8iw20p1_spinor.a
                0x0000000000022398                set_spi_clk

.text.spi_init  0x00000000000223e8       0x90
 .text.spi_init
                0x00000000000223e8       0x90 /home/ubuntu/tina5sdk-bsp/brandy/brandy-2.0/spl-pub/board/t113/libsun8iw20p1_spinor.a
                0x00000000000223e8                spi_init

.text.spi_xfer  0x0000000000022478      0x240
 .text.spi_xfer
                0x0000000000022478      0x240 /home/ubuntu/tina5sdk-bsp/brandy/brandy-2.0/spl-pub/board/t113/libsun8iw20p1_spinor.a
                0x0000000000022478                spi_xfer

.text.i2c_sendbyteaddr
                0x00000000000226b8       0x38
 .text.i2c_sendbyteaddr
                0x00000000000226b8       0x38 /home/ubuntu/tina5sdk-bsp/brandy/brandy-2.0/spl-pub/board/t113/libsun8iw20p1_spinor.a

.text.i2c_sendstart
                0x00000000000226f0       0x40
 .text.i2c_sendstart
                0x00000000000226f0       0x40 /home/ubuntu/tina5sdk-bsp/brandy/brandy-2.0/spl-pub/board/t113/libsun8iw20p1_spinor.a

.text.i2c_sendslaveaddr
                0x0000000000022730       0x4c
 .text.i2c_sendslaveaddr
                0x0000000000022730       0x4c /home/ubuntu/tina5sdk-bsp/brandy/brandy-2.0/spl-pub/board/t113/libsun8iw20p1_spinor.a

.text.i2c_stop  0x000000000002277c       0x4c
 .text.i2c_stop
                0x000000000002277c       0x4c /home/ubuntu/tina5sdk-bsp/brandy/brandy-2.0/spl-pub/board/t113/libsun8iw20p1_spinor.a

.text.i2c_read  0x00000000000227c8      0x15c
 .text.i2c_read
                0x00000000000227c8      0x15c /home/ubuntu/tina5sdk-bsp/brandy/brandy-2.0/spl-pub/board/t113/libsun8iw20p1_spinor.a
                0x00000000000227c8                i2c_read

.text.i2c_write
                0x0000000000022924       0xb0
 .text.i2c_write
                0x0000000000022924       0xb0 /home/ubuntu/tina5sdk-bsp/brandy/brandy-2.0/spl-pub/board/t113/libsun8iw20p1_spinor.a
                0x0000000000022924                i2c_write

.text.i2c_set_clock
                0x00000000000229d4       0xdc
 .text.i2c_set_clock
                0x00000000000229d4       0xdc /home/ubuntu/tina5sdk-bsp/brandy/brandy-2.0/spl-pub/board/t113/libsun8iw20p1_spinor.a
                0x00000000000229d4                i2c_set_clock

.text.get_i2c_gpio
                0x0000000000022ab0       0x18
 .text.get_i2c_gpio
                0x0000000000022ab0       0x18 /home/ubuntu/tina5sdk-bsp/brandy/brandy-2.0/spl-pub/board/t113/libsun8iw20p1_spinor.a
                0x0000000000022ab0                get_i2c_gpio

.text.i2c_init  0x0000000000022ac8       0xc0
 .text.i2c_init
                0x0000000000022ac8       0xc0 /home/ubuntu/tina5sdk-bsp/brandy/brandy-2.0/spl-pub/board/t113/libsun8iw20p1_spinor.a
                0x0000000000022ac8                i2c_init

.text.i2c_init_cpus
                0x0000000000022b88       0x3c
 .text.i2c_init_cpus
                0x0000000000022b88       0x3c /home/ubuntu/tina5sdk-bsp/brandy/brandy-2.0/spl-pub/board/t113/libsun8iw20p1_spinor.a
                0x0000000000022b88                i2c_init_cpus

.text.i2c_exit  0x0000000000022bc4       0xc4
 .text.i2c_exit
                0x0000000000022bc4       0xc4 /home/ubuntu/tina5sdk-bsp/brandy/brandy-2.0/spl-pub/board/t113/libsun8iw20p1_spinor.a
                0x0000000000022bc4                i2c_exit

.text.pmic_bus_init
                0x0000000000022c88        0xa
 .text.pmic_bus_init
                0x0000000000022c88        0xa /home/ubuntu/tina5sdk-bsp/brandy/brandy-2.0/spl-pub/board/t113/libsun8iw20p1_spinor.a
                0x0000000000022c88                pmic_bus_init

.text.pmic_bus_read
                0x0000000000022c92       0x14
 .text.pmic_bus_read
                0x0000000000022c92       0x14 /home/ubuntu/tina5sdk-bsp/brandy/brandy-2.0/spl-pub/board/t113/libsun8iw20p1_spinor.a
                0x0000000000022c92                pmic_bus_read

.text.pmic_bus_write
                0x0000000000022ca6       0x18
 .text.pmic_bus_write
                0x0000000000022ca6       0x18 /home/ubuntu/tina5sdk-bsp/brandy/brandy-2.0/spl-pub/board/t113/libsun8iw20p1_spinor.a
                0x0000000000022ca6                pmic_bus_write

.text.handler_super_standby
                0x0000000000022cc0      0x102
 .text.handler_super_standby
                0x0000000000022cc0      0x102 /home/ubuntu/tina5sdk-bsp/brandy/brandy-2.0/spl-pub/board/t113/libsun8iw20p1_spinor.a
                0x0000000000022cc0                handler_super_standby

.text.wdt_stop  0x0000000000022dc4       0x18
 .text.wdt_stop
                0x0000000000022dc4       0x18 /home/ubuntu/tina5sdk-bsp/brandy/brandy-2.0/spl-pub/board/t113/libsun8iw20p1_spinor.a
                0x0000000000022dc4                wdt_stop

.text.wdt_start
                0x0000000000022ddc       0x34
 .text.wdt_start
                0x0000000000022ddc       0x34 /home/ubuntu/tina5sdk-bsp/brandy/brandy-2.0/spl-pub/board/t113/libsun8iw20p1_spinor.a
                0x0000000000022ddc                wdt_start

.text.sunxi_dma_reg_func
                0x0000000000022e10       0x3c
 .text.sunxi_dma_reg_func
                0x0000000000022e10       0x3c /home/ubuntu/tina5sdk-bsp/brandy/brandy-2.0/spl-pub/board/t113/libsun8iw20p1_spinor.a
                0x0000000000022e10                sunxi_dma_reg_func

.text.sunxi_dma_init
                0x0000000000022e4c       0xbc
 .text.sunxi_dma_init
                0x0000000000022e4c       0xbc /home/ubuntu/tina5sdk-bsp/brandy/brandy-2.0/spl-pub/board/t113/libsun8iw20p1_spinor.a
                0x0000000000022e4c                sunxi_dma_init

.text.sunxi_dma_request
                0x0000000000022f08       0x28
 .text.sunxi_dma_request
                0x0000000000022f08       0x28 /home/ubuntu/tina5sdk-bsp/brandy/brandy-2.0/spl-pub/board/t113/libsun8iw20p1_spinor.a
                0x0000000000022f08                sunxi_dma_request

.text.sunxi_dma_setting
                0x0000000000022f30       0x48
 .text.sunxi_dma_setting
                0x0000000000022f30       0x48 /home/ubuntu/tina5sdk-bsp/brandy/brandy-2.0/spl-pub/board/t113/libsun8iw20p1_spinor.a
                0x0000000000022f30                sunxi_dma_setting

.text.sunxi_dma_start
                0x0000000000022f78       0x4c
 .text.sunxi_dma_start
                0x0000000000022f78       0x4c /home/ubuntu/tina5sdk-bsp/brandy/brandy-2.0/spl-pub/board/t113/libsun8iw20p1_spinor.a
                0x0000000000022f78                sunxi_dma_start

.text.sunxi_dma_querystatus
                0x0000000000022fc4       0x20
 .text.sunxi_dma_querystatus
                0x0000000000022fc4       0x20 /home/ubuntu/tina5sdk-bsp/brandy/brandy-2.0/spl-pub/board/t113/libsun8iw20p1_spinor.a
                0x0000000000022fc4                sunxi_dma_querystatus

.text.sunxi_dma_install_int
                0x0000000000022fe4       0x54
 .text.sunxi_dma_install_int
                0x0000000000022fe4       0x54 /home/ubuntu/tina5sdk-bsp/brandy/brandy-2.0/spl-pub/board/t113/libsun8iw20p1_spinor.a
                0x0000000000022fe4                sunxi_dma_install_int

.text.sunxi_dma_enable_int
                0x0000000000023038       0x70
 .text.sunxi_dma_enable_int
                0x0000000000023038       0x70 /home/ubuntu/tina5sdk-bsp/brandy/brandy-2.0/spl-pub/board/t113/libsun8iw20p1_spinor.a
                0x0000000000023038                sunxi_dma_enable_int

.text.set_ddr_voltage
                0x00000000000230a8       0x2c
 .text.set_ddr_voltage
                0x00000000000230a8       0x2c /home/ubuntu/tina5sdk-bsp/brandy/brandy-2.0/spl-pub/board/t113/libsun8iw20p1_spinor.a
                0x00000000000230ac                set_ddr_voltage

.text.get_pmu_exist
                0x00000000000230d4       0x14
 .text.get_pmu_exist
                0x00000000000230d4       0x14 /home/ubuntu/tina5sdk-bsp/brandy/brandy-2.0/spl-pub/board/t113/libsun8iw20p1_spinor.a
                0x00000000000230dc                get_pmu_exist

.text.memcpy_self
                0x00000000000230e8       0x18
 .text.memcpy_self
                0x00000000000230e8       0x18 /home/ubuntu/tina5sdk-bsp/brandy/brandy-2.0/spl-pub/board/t113/libsun8iw20p1_spinor.a
                0x00000000000230e8                memcpy_self

.text.sid_read_ldoB_cal
                0x0000000000023100       0x38
 .text.sid_read_ldoB_cal
                0x0000000000023100       0x38 /home/ubuntu/tina5sdk-bsp/brandy/brandy-2.0/spl-pub/board/t113/libsun8iw20p1_spinor.a
                0x0000000000023100                sid_read_ldoB_cal

.text.dram_vol_set
                0x0000000000023138       0x3c
 .text.dram_vol_set
                0x0000000000023138       0x3c /home/ubuntu/tina5sdk-bsp/brandy/brandy-2.0/spl-pub/board/t113/libsun8iw20p1_spinor.a
                0x0000000000023138                dram_vol_set

.text.dram_enable_all_master
                0x0000000000023174       0x1c
 .text.dram_enable_all_master
                0x0000000000023174       0x1c /home/ubuntu/tina5sdk-bsp/brandy/brandy-2.0/spl-pub/board/t113/libsun8iw20p1_spinor.a
                0x0000000000023174                dram_enable_all_master

.text.dram_disable_all_master
                0x0000000000023190       0x1c
 .text.dram_disable_all_master
                0x0000000000023190       0x1c /home/ubuntu/tina5sdk-bsp/brandy/brandy-2.0/spl-pub/board/t113/libsun8iw20p1_spinor.a
                0x0000000000023190                dram_disable_all_master

.text.eye_delay_compensation
                0x00000000000231ac      0x14c
 .text.eye_delay_compensation
                0x00000000000231ac      0x14c /home/ubuntu/tina5sdk-bsp/brandy/brandy-2.0/spl-pub/board/t113/libsun8iw20p1_spinor.a
                0x00000000000231ac                eye_delay_compensation

.text.auto_cal_timing
                0x00000000000232f8       0x24
 .text.auto_cal_timing
                0x00000000000232f8       0x24 /home/ubuntu/tina5sdk-bsp/brandy/brandy-2.0/spl-pub/board/t113/libsun8iw20p1_spinor.a
                0x00000000000232f8                auto_cal_timing

.text.auto_set_timing_para
                0x000000000002331c      0x788
 .text.auto_set_timing_para
                0x000000000002331c      0x788 /home/ubuntu/tina5sdk-bsp/brandy/brandy-2.0/spl-pub/board/t113/libsun8iw20p1_spinor.a
                0x000000000002331c                auto_set_timing_para

.text.ccm_set_pll_ddr_clk
                0x0000000000023aa4       0x7c
 .text.ccm_set_pll_ddr_clk
                0x0000000000023aa4       0x7c /home/ubuntu/tina5sdk-bsp/brandy/brandy-2.0/spl-pub/board/t113/libsun8iw20p1_spinor.a
                0x0000000000023aa4                ccm_set_pll_ddr_clk

.text.mctl_sys_init
                0x0000000000023b20       0xb4
 .text.mctl_sys_init
                0x0000000000023b20       0xb4 /home/ubuntu/tina5sdk-bsp/brandy/brandy-2.0/spl-pub/board/t113/libsun8iw20p1_spinor.a
                0x0000000000023b20                mctl_sys_init

.text.mctl_com_init
                0x0000000000023bd4      0x158
 .text.mctl_com_init
                0x0000000000023bd4      0x158 /home/ubuntu/tina5sdk-bsp/brandy/brandy-2.0/spl-pub/board/t113/libsun8iw20p1_spinor.a
                0x0000000000023bd4                mctl_com_init

.text.mctl_phy_ac_remapping
                0x0000000000023d2c      0x318
 .text.mctl_phy_ac_remapping
                0x0000000000023d2c      0x318 /home/ubuntu/tina5sdk-bsp/brandy/brandy-2.0/spl-pub/board/t113/libsun8iw20p1_spinor.a
                0x0000000000023d2c                mctl_phy_ac_remapping

.text.mctl_channel_init
                0x0000000000024044      0x354
 .text.mctl_channel_init
                0x0000000000024044      0x354 /home/ubuntu/tina5sdk-bsp/brandy/brandy-2.0/spl-pub/board/t113/libsun8iw20p1_spinor.a
                0x0000000000024044                mctl_channel_init

.text.DRAMC_get_dram_size
                0x0000000000024398       0x54
 .text.DRAMC_get_dram_size
                0x0000000000024398       0x54 /home/ubuntu/tina5sdk-bsp/brandy/brandy-2.0/spl-pub/board/t113/libsun8iw20p1_spinor.a
                0x0000000000024398                DRAMC_get_dram_size

.text.dqs_gate_detect
                0x00000000000243ec       0xa4
 .text.dqs_gate_detect
                0x00000000000243ec       0xa4 /home/ubuntu/tina5sdk-bsp/brandy/brandy-2.0/spl-pub/board/t113/libsun8iw20p1_spinor.a
                0x00000000000243ec                dqs_gate_detect

.text.dramc_simple_wr_test
                0x0000000000024490       0x94
 .text.dramc_simple_wr_test
                0x0000000000024490       0x94 /home/ubuntu/tina5sdk-bsp/brandy/brandy-2.0/spl-pub/board/t113/libsun8iw20p1_spinor.a
                0x0000000000024490                dramc_simple_wr_test

.text.mctl_vrefzq_init
                0x0000000000024524       0x30
 .text.mctl_vrefzq_init
                0x0000000000024524       0x30 /home/ubuntu/tina5sdk-bsp/brandy/brandy-2.0/spl-pub/board/t113/libsun8iw20p1_spinor.a
                0x0000000000024524                mctl_vrefzq_init

.text.mctl_core_init
                0x0000000000024554       0x2a
 .text.mctl_core_init
                0x0000000000024554       0x2a /home/ubuntu/tina5sdk-bsp/brandy/brandy-2.0/spl-pub/board/t113/libsun8iw20p1_spinor.a
                0x0000000000024554                mctl_core_init

.text.auto_scan_dram_size
                0x0000000000024580      0x284
 .text.auto_scan_dram_size
                0x0000000000024580      0x284 /home/ubuntu/tina5sdk-bsp/brandy/brandy-2.0/spl-pub/board/t113/libsun8iw20p1_spinor.a
                0x0000000000024580                auto_scan_dram_size

.text.auto_scan_dram_rank_width
                0x0000000000024804       0x4c
 .text.auto_scan_dram_rank_width
                0x0000000000024804       0x4c /home/ubuntu/tina5sdk-bsp/brandy/brandy-2.0/spl-pub/board/t113/libsun8iw20p1_spinor.a
                0x0000000000024804                auto_scan_dram_rank_width

.text.auto_scan_dram_config
                0x0000000000024850       0x4c
 .text.auto_scan_dram_config
                0x0000000000024850       0x4c /home/ubuntu/tina5sdk-bsp/brandy/brandy-2.0/spl-pub/board/t113/libsun8iw20p1_spinor.a
                0x0000000000024850                auto_scan_dram_config

.text.init_DRAM
                0x000000000002489c      0x28c
 .text.init_DRAM
                0x000000000002489c      0x28c /home/ubuntu/tina5sdk-bsp/brandy/brandy-2.0/spl-pub/board/t113/libsun8iw20p1_spinor.a
                0x000000000002489c                init_DRAM

.text.set_sys_voltage
                0x0000000000024b28       0x18
 .text.set_sys_voltage
                0x0000000000024b28       0x18 /home/ubuntu/tina5sdk-bsp/brandy/brandy-2.0/spl-pub/board/t113/libsun8iw20p1_spinor.a
                0x0000000000024b28                set_sys_voltage

.text.set_pll_voltage
                0x0000000000024b40       0x18
 .text.set_pll_voltage
                0x0000000000024b40       0x18 /home/ubuntu/tina5sdk-bsp/brandy/brandy-2.0/spl-pub/board/t113/libsun8iw20p1_spinor.a
                0x0000000000024b40                set_pll_voltage

.text.axp_init  0x0000000000024b58       0x1c
 .text.axp_init
                0x0000000000024b58       0x1c /home/ubuntu/tina5sdk-bsp/brandy/brandy-2.0/spl-pub/board/t113/libsun8iw20p1_spinor.a
                0x0000000000024b58                axp_init

.text.get_power_mode
                0x0000000000024b74        0xc
 .text.get_power_mode
                0x0000000000024b74        0xc /home/ubuntu/tina5sdk-bsp/brandy/brandy-2.0/spl-pub/board/t113/libsun8iw20p1_spinor.a
                0x0000000000024b74                get_power_mode

.text.get_ctrl_info_from_tbl
                0x0000000000024b80       0x38
 .text.get_ctrl_info_from_tbl
                0x0000000000024b80       0x38 /home/ubuntu/tina5sdk-bsp/brandy/brandy-2.0/spl-pub/board/t113/libsun8iw20p1_spinor.a

.text.pmu_set_vol
                0x0000000000024bb8      0x11e
 .text.pmu_set_vol
                0x0000000000024bb8      0x11e /home/ubuntu/tina5sdk-bsp/brandy/brandy-2.0/spl-pub/board/t113/libsun8iw20p1_spinor.a

.text.axp1530_set_ddr_voltage
                0x0000000000024cd8       0xd8
 .text.axp1530_set_ddr_voltage
                0x0000000000024cd8       0xd8 /home/ubuntu/tina5sdk-bsp/brandy/brandy-2.0/spl-pub/board/t113/libsun8iw20p1_spinor.a
                0x0000000000024cd8                axp1530_set_ddr_voltage

.text.axp1530_set_pll_voltage
                0x0000000000024db0       0x10
 .text.axp1530_set_pll_voltage
                0x0000000000024db0       0x10 /home/ubuntu/tina5sdk-bsp/brandy/brandy-2.0/spl-pub/board/t113/libsun8iw20p1_spinor.a
                0x0000000000024db0                axp1530_set_pll_voltage

.text.axp1530_set_sys_voltage
                0x0000000000024dc0       0x10
 .text.axp1530_set_sys_voltage
                0x0000000000024dc0       0x10 /home/ubuntu/tina5sdk-bsp/brandy/brandy-2.0/spl-pub/board/t113/libsun8iw20p1_spinor.a
                0x0000000000024dc0                axp1530_set_sys_voltage

.text.axp1530_axp_init
                0x0000000000024dd0       0xac
 .text.axp1530_axp_init
                0x0000000000024dd0       0xac /home/ubuntu/tina5sdk-bsp/brandy/brandy-2.0/spl-pub/board/t113/libsun8iw20p1_spinor.a
                0x0000000000024dd0                axp1530_axp_init

.text.sid_read_work_status
                0x0000000000024e7c       0x14
 .text.sid_read_work_status
                0x0000000000024e7c       0x14 /home/ubuntu/tina5sdk-bsp/brandy/brandy-2.0/spl-pub/board/t113/libsun8iw20p1_spinor.a
                0x0000000000024e7c                sid_read_work_status

.text.sid_read_key
                0x0000000000024e90       0x68
 .text.sid_read_key
                0x0000000000024e90       0x68 /home/ubuntu/tina5sdk-bsp/brandy/brandy-2.0/spl-pub/board/t113/libsun8iw20p1_spinor.a
                0x0000000000024e90                sid_read_key

.text.sid_program_key
                0x0000000000024ef8       0x90
 .text.sid_program_key
                0x0000000000024ef8       0x90 /home/ubuntu/tina5sdk-bsp/brandy/brandy-2.0/spl-pub/board/t113/libsun8iw20p1_spinor.a
                0x0000000000024ef8                sid_program_key

.text.spi_nor_read_reg
                0x0000000000024f88       0x5c
 .text.spi_nor_read_reg
                0x0000000000024f88       0x5c /home/ubuntu/tina5sdk-bsp/brandy/brandy-2.0/spl-pub/board/t113/libsun8iw20p1_spinor.a

.text.read_sr   0x0000000000024fe4        0xa
 .text.read_sr  0x0000000000024fe4        0xa /home/ubuntu/tina5sdk-bsp/brandy/brandy-2.0/spl-pub/board/t113/libsun8iw20p1_spinor.a

.text.spi_flash_wait_till_ready
                0x0000000000024ff0       0x34
 .text.spi_flash_wait_till_ready
                0x0000000000024ff0       0x34 /home/ubuntu/tina5sdk-bsp/brandy/brandy-2.0/spl-pub/board/t113/libsun8iw20p1_spinor.a

.text.read_sr1  0x0000000000025024        0xa
 .text.read_sr1
                0x0000000000025024        0xa /home/ubuntu/tina5sdk-bsp/brandy/brandy-2.0/spl-pub/board/t113/libsun8iw20p1_spinor.a

.text.spi_nor_write_reg
                0x0000000000025030       0x40
 .text.spi_nor_write_reg
                0x0000000000025030       0x40 /home/ubuntu/tina5sdk-bsp/brandy/brandy-2.0/spl-pub/board/t113/libsun8iw20p1_spinor.a

.text.spi_flash_write_en
                0x0000000000025070        0xa
 .text.spi_flash_write_en
                0x0000000000025070        0xa /home/ubuntu/tina5sdk-bsp/brandy/brandy-2.0/spl-pub/board/t113/libsun8iw20p1_spinor.a

.text.write_sr  0x000000000002507a       0x26
 .text.write_sr
                0x000000000002507a       0x26 /home/ubuntu/tina5sdk-bsp/brandy/brandy-2.0/spl-pub/board/t113/libsun8iw20p1_spinor.a

.text.spi_nor_set_4byte_opcodes
                0x00000000000250a0       0x6c
 .text.spi_nor_set_4byte_opcodes
                0x00000000000250a0       0x6c /home/ubuntu/tina5sdk-bsp/brandy/brandy-2.0/spl-pub/board/t113/libsun8iw20p1_spinor.a
                0x00000000000250a0                spi_nor_set_4byte_opcodes

.text.set_delay_para
                0x000000000002510c       0x58
 .text.set_delay_para
                0x000000000002510c       0x58 /home/ubuntu/tina5sdk-bsp/brandy/brandy-2.0/spl-pub/board/t113/libsun8iw20p1_spinor.a
                0x000000000002510c                set_delay_para

.text.spinor_read
                0x0000000000025164      0x13c
 .text.spinor_read
                0x0000000000025164      0x13c /home/ubuntu/tina5sdk-bsp/brandy/brandy-2.0/spl-pub/board/t113/libsun8iw20p1_spinor.a
                0x0000000000025164                spinor_read

.text.get_boot_param
                0x00000000000252a0       0x50
 .text.get_boot_param
                0x00000000000252a0       0x50 /home/ubuntu/tina5sdk-bsp/brandy/brandy-2.0/spl-pub/board/t113/libsun8iw20p1_spinor.a
                0x00000000000252a0                get_boot_param

.text.spinor_init
                0x00000000000252f0      0x250
 .text.spinor_init
                0x00000000000252f0      0x250 /home/ubuntu/tina5sdk-bsp/brandy/brandy-2.0/spl-pub/board/t113/libsun8iw20p1_spinor.a
                0x00000000000252f0                spinor_init

.text.sunxi_flashmap_bootparam_start
                0x0000000000025540       0x24
 .text.sunxi_flashmap_bootparam_start
                0x0000000000025540       0x24 /home/ubuntu/tina5sdk-bsp/brandy/brandy-2.0/spl-pub/board/t113/libsun8iw20p1_spinor.a
                0x0000000000025540                sunxi_flashmap_bootparam_start

.text.sunxi_flashmap_toc1_start
                0x0000000000025564       0x24
 .text.sunxi_flashmap_toc1_start
                0x0000000000025564       0x24 /home/ubuntu/tina5sdk-bsp/brandy/brandy-2.0/spl-pub/board/t113/libsun8iw20p1_spinor.a
                0x0000000000025564                sunxi_flashmap_toc1_start

.text.update_flash_para
                0x0000000000025588        0x8
 .text.update_flash_para
                0x0000000000025588        0x8 /home/ubuntu/tina5sdk-bsp/brandy/brandy-2.0/spl-pub/board/t113/libsun8iw20p1_spinor.a
                0x0000000000025588                update_flash_para

.text.load_toc1_from_spinor
                0x0000000000025590       0x80
 .text.load_toc1_from_spinor
                0x0000000000025590       0x80 /home/ubuntu/tina5sdk-bsp/brandy/brandy-2.0/spl-pub/board/t113/libsun8iw20p1_spinor.a
                0x0000000000025590                load_toc1_from_spinor

.text.load_package
                0x0000000000025610        0xc
 .text.load_package
                0x0000000000025610        0xc /home/ubuntu/tina5sdk-bsp/brandy/brandy-2.0/spl-pub/board/t113/libsun8iw20p1_spinor.a
                0x0000000000025610                load_package

.text.toc1_flash_read
                0x000000000002561c       0x22
 .text.toc1_flash_read
                0x000000000002561c       0x22 /home/ubuntu/tina5sdk-bsp/brandy/brandy-2.0/spl-pub/board/t113/libsun8iw20p1_spinor.a
                0x000000000002561c                toc1_flash_read

.text.toc1_get_image_addr
                0x000000000002563e       0x14
 .text.toc1_get_image_addr
                0x000000000002563e       0x14 /home/ubuntu/tina5sdk-bsp/brandy/brandy-2.0/spl-pub/board/t113/libsun8iw20p1_spinor.a
                0x000000000002563e                toc1_get_image_addr

.text.load_image
                0x0000000000025654      0x250
 .text.load_image
                0x0000000000025654      0x250 /home/ubuntu/tina5sdk-bsp/brandy/brandy-2.0/spl-pub/board/t113/libsun8iw20p1_spinor.a
                0x0000000000025654                load_image

.iplt           0x00000000000258a4        0x0
 .iplt          0x00000000000258a4        0x0 /home/ubuntu/tina5sdk-bsp/brandy/brandy-2.0/spl-pub/board/t113/libsun8iw20p1_spinor.a

.text.startup.main
                0x00000000000258a4      0x234
 .text.startup.main
                0x00000000000258a4      0x234 /home/ubuntu/tina5sdk-bsp/brandy/brandy-2.0/spl-pub/nboot/main/boot0_main.o
                0x00000000000258a4                main
                0x0000000000025ae0                . = ALIGN (0x10)

.rodata         0x0000000000025ae0      0x3f2
 *(.rodata)
 .rodata        0x0000000000025ae0      0x3f2 /home/ubuntu/tina5sdk-bsp/brandy/brandy-2.0/spl-pub/board/t113/libsun8iw20p1_spinor.a
                0x0000000000025af8                _ctype

.rodata.str1.1  0x0000000000025ed2      0xe05
 .rodata.str1.1
                0x0000000000025ed2      0xd27 /home/ubuntu/tina5sdk-bsp/brandy/brandy-2.0/spl-pub/board/t113/libsun8iw20p1_spinor.a
                                        0xd31 (size before relaxing)
 .rodata.str1.1
                0x0000000000026bf9       0xde /home/ubuntu/tina5sdk-bsp/brandy/brandy-2.0/spl-pub/nboot/main/boot0_main.o

.rel.dyn        0x0000000000026cd8        0x0
 .rel.iplt      0x0000000000026cd8        0x0 /home/ubuntu/tina5sdk-bsp/brandy/brandy-2.0/spl-pub/board/t113/libsun8iw20p1_spinor.a
                0x0000000000026ce0                . = ALIGN (0x10)

.data           0x0000000000026ce0      0x308
 *(.data)
 .data          0x0000000000026ce0      0x308 /home/ubuntu/tina5sdk-bsp/brandy/brandy-2.0/spl-pub/board/t113/libsun8iw20p1_spinor.a
                0x0000000000026cf4                g_spi_rx_dma
                0x0000000000026d04                i2c_gpio
                0x0000000000026d40                g_sunxi_dma_desc
                0x0000000000026fe4                working_fdt

.igot.plt       0x0000000000026fe8        0x0
 .igot.plt      0x0000000000026fe8        0x0 /home/ubuntu/tina5sdk-bsp/brandy/brandy-2.0/spl-pub/board/t113/libsun8iw20p1_spinor.a
                0x0000000000026fe8                . = ALIGN (0x4)

.bss            0x0000000000027000     0x1140
                0x0000000000027000                __bss_start = .
 *(.bss)
 .bss           0x0000000000027000     0x1140 /home/ubuntu/tina5sdk-bsp/brandy/brandy-2.0/spl-pub/board/t113/libsun8iw20p1_spinor.a
                0x0000000000027050                i2c_has_init
                0x0000000000027054                twi_gpio
                0x0000000000027100                spinor_info
                0x0000000000027140                boot_param_cache
                0x0000000000028140                . = ALIGN (0x4)
                0x0000000000028140                __bss_end = .
                0x0000000000028140                _end = .
                0x0000000000000001                ASSERT ((. <= 0x40000), boot0 image has exceeded its limit.)
OUTPUT(boot0_spinor.elf elf32-littlearm)

.comment        0x0000000000000000       0x91
 .comment       0x0000000000000000       0x91 /home/ubuntu/tina5sdk-bsp/brandy/brandy-2.0/spl-pub/board/t113/libsun8iw20p1_spinor.a
                                        0x653 (size before relaxing)
 .comment       0x0000000000000091       0x2e /home/ubuntu/tina5sdk-bsp/brandy/brandy-2.0/spl-pub/nboot/main/boot0_main.o
 .comment       0x0000000000000091       0x2e main/boot0_head.o

.note.GNU-stack
                0x0000000000000000        0x0
 .note.GNU-stack
                0x0000000000000000        0x0 /home/ubuntu/tina5sdk-bsp/brandy/brandy-2.0/spl-pub/board/t113/libsun8iw20p1_spinor.a
 .note.GNU-stack
                0x0000000000000000        0x0 /home/ubuntu/tina5sdk-bsp/brandy/brandy-2.0/spl-pub/nboot/main/boot0_main.o
 .note.GNU-stack
                0x0000000000000000        0x0 /home/ubuntu/tina5sdk-bsp/brandy/brandy-2.0/tools/toolchain/gcc-linaro-7.2.1-2017.11-x86_64_arm-linux-gnueabi/bin/../lib/gcc/arm-linux-gnueabi/7.2.1/libgcc.a(_udivsi3.o)
 .note.GNU-stack
                0x0000000000000000        0x0 /home/ubuntu/tina5sdk-bsp/brandy/brandy-2.0/tools/toolchain/gcc-linaro-7.2.1-2017.11-x86_64_arm-linux-gnueabi/bin/../lib/gcc/arm-linux-gnueabi/7.2.1/libgcc.a(_divsi3.o)
 .note.GNU-stack
                0x0000000000000000        0x0 /home/ubuntu/tina5sdk-bsp/brandy/brandy-2.0/tools/toolchain/gcc-linaro-7.2.1-2017.11-x86_64_arm-linux-gnueabi/bin/../lib/gcc/arm-linux-gnueabi/7.2.1/libgcc.a(_dvmd_lnx.o)
 .note.GNU-stack
                0x0000000000000000        0x0 main/boot0_head.o

.ARM.attributes
                0x0000000000000000       0x33
 .ARM.attributes
                0x0000000000000000       0x33 /home/ubuntu/tina5sdk-bsp/brandy/brandy-2.0/spl-pub/board/t113/libsun8iw20p1_spinor.a
 .ARM.attributes
                0x0000000000000033       0x2d /home/ubuntu/tina5sdk-bsp/brandy/brandy-2.0/spl-pub/nboot/main/boot0_main.o
 .ARM.attributes
                0x0000000000000060       0x1f /home/ubuntu/tina5sdk-bsp/brandy/brandy-2.0/tools/toolchain/gcc-linaro-7.2.1-2017.11-x86_64_arm-linux-gnueabi/bin/../lib/gcc/arm-linux-gnueabi/7.2.1/libgcc.a(_udivsi3.o)
 .ARM.attributes
                0x000000000000007f       0x1f /home/ubuntu/tina5sdk-bsp/brandy/brandy-2.0/tools/toolchain/gcc-linaro-7.2.1-2017.11-x86_64_arm-linux-gnueabi/bin/../lib/gcc/arm-linux-gnueabi/7.2.1/libgcc.a(_divsi3.o)
 .ARM.attributes
                0x000000000000009e       0x1f /home/ubuntu/tina5sdk-bsp/brandy/brandy-2.0/tools/toolchain/gcc-linaro-7.2.1-2017.11-x86_64_arm-linux-gnueabi/bin/../lib/gcc/arm-linux-gnueabi/7.2.1/libgcc.a(_dvmd_lnx.o)
 .ARM.attributes
                0x00000000000000bd       0x31 main/boot0_head.o
 .ARM.attributes
                0x00000000000000ee       0x21 /home/ubuntu/tina5sdk-bsp/brandy/brandy-2.0/spl-pub/arch/arm/cpu/armv7/boot0_entry.o

.debug_info     0x0000000000000000     0x1bb9
 .debug_info    0x0000000000000000     0x1136 /home/ubuntu/tina5sdk-bsp/brandy/brandy-2.0/spl-pub/nboot/main/boot0_main.o
 .debug_info    0x0000000000001136      0x1cb /home/ubuntu/tina5sdk-bsp/brandy/brandy-2.0/tools/toolchain/gcc-linaro-7.2.1-2017.11-x86_64_arm-linux-gnueabi/bin/../lib/gcc/arm-linux-gnueabi/7.2.1/libgcc.a(_udivsi3.o)
 .debug_info    0x0000000000001301      0x1cb /home/ubuntu/tina5sdk-bsp/brandy/brandy-2.0/tools/toolchain/gcc-linaro-7.2.1-2017.11-x86_64_arm-linux-gnueabi/bin/../lib/gcc/arm-linux-gnueabi/7.2.1/libgcc.a(_divsi3.o)
 .debug_info    0x00000000000014cc      0x1cb /home/ubuntu/tina5sdk-bsp/brandy/brandy-2.0/tools/toolchain/gcc-linaro-7.2.1-2017.11-x86_64_arm-linux-gnueabi/bin/../lib/gcc/arm-linux-gnueabi/7.2.1/libgcc.a(_dvmd_lnx.o)
 .debug_info    0x0000000000001697      0x4a5 main/boot0_head.o
 .debug_info    0x0000000000001b3c       0x7d /home/ubuntu/tina5sdk-bsp/brandy/brandy-2.0/spl-pub/arch/arm/cpu/armv7/boot0_entry.o

.debug_abbrev   0x0000000000000000      0x36e
 .debug_abbrev  0x0000000000000000      0x24f /home/ubuntu/tina5sdk-bsp/brandy/brandy-2.0/spl-pub/nboot/main/boot0_main.o
 .debug_abbrev  0x000000000000024f       0x14 /home/ubuntu/tina5sdk-bsp/brandy/brandy-2.0/tools/toolchain/gcc-linaro-7.2.1-2017.11-x86_64_arm-linux-gnueabi/bin/../lib/gcc/arm-linux-gnueabi/7.2.1/libgcc.a(_udivsi3.o)
 .debug_abbrev  0x0000000000000263       0x14 /home/ubuntu/tina5sdk-bsp/brandy/brandy-2.0/tools/toolchain/gcc-linaro-7.2.1-2017.11-x86_64_arm-linux-gnueabi/bin/../lib/gcc/arm-linux-gnueabi/7.2.1/libgcc.a(_divsi3.o)
 .debug_abbrev  0x0000000000000277       0x14 /home/ubuntu/tina5sdk-bsp/brandy/brandy-2.0/tools/toolchain/gcc-linaro-7.2.1-2017.11-x86_64_arm-linux-gnueabi/bin/../lib/gcc/arm-linux-gnueabi/7.2.1/libgcc.a(_dvmd_lnx.o)
 .debug_abbrev  0x000000000000028b       0xcf main/boot0_head.o
 .debug_abbrev  0x000000000000035a       0x14 /home/ubuntu/tina5sdk-bsp/brandy/brandy-2.0/spl-pub/arch/arm/cpu/armv7/boot0_entry.o

.debug_loc      0x0000000000000000      0x19b
 .debug_loc     0x0000000000000000      0x19b /home/ubuntu/tina5sdk-bsp/brandy/brandy-2.0/spl-pub/nboot/main/boot0_main.o

.debug_aranges  0x0000000000000000       0xb8
 .debug_aranges
                0x0000000000000000       0x20 /home/ubuntu/tina5sdk-bsp/brandy/brandy-2.0/spl-pub/nboot/main/boot0_main.o
 .debug_aranges
                0x0000000000000020       0x20 /home/ubuntu/tina5sdk-bsp/brandy/brandy-2.0/tools/toolchain/gcc-linaro-7.2.1-2017.11-x86_64_arm-linux-gnueabi/bin/../lib/gcc/arm-linux-gnueabi/7.2.1/libgcc.a(_udivsi3.o)
 .debug_aranges
                0x0000000000000040       0x20 /home/ubuntu/tina5sdk-bsp/brandy/brandy-2.0/tools/toolchain/gcc-linaro-7.2.1-2017.11-x86_64_arm-linux-gnueabi/bin/../lib/gcc/arm-linux-gnueabi/7.2.1/libgcc.a(_divsi3.o)
 .debug_aranges
                0x0000000000000060       0x20 /home/ubuntu/tina5sdk-bsp/brandy/brandy-2.0/tools/toolchain/gcc-linaro-7.2.1-2017.11-x86_64_arm-linux-gnueabi/bin/../lib/gcc/arm-linux-gnueabi/7.2.1/libgcc.a(_dvmd_lnx.o)
 .debug_aranges
                0x0000000000000080       0x18 main/boot0_head.o
 .debug_aranges
                0x0000000000000098       0x20 /home/ubuntu/tina5sdk-bsp/brandy/brandy-2.0/spl-pub/arch/arm/cpu/armv7/boot0_entry.o

.debug_ranges   0x0000000000000000       0x30
 .debug_ranges  0x0000000000000000       0x30 /home/ubuntu/tina5sdk-bsp/brandy/brandy-2.0/spl-pub/nboot/main/boot0_main.o

.debug_line     0x0000000000000000      0x69b
 .debug_line    0x0000000000000000      0x25e /home/ubuntu/tina5sdk-bsp/brandy/brandy-2.0/spl-pub/nboot/main/boot0_main.o
 .debug_line    0x000000000000025e      0x108 /home/ubuntu/tina5sdk-bsp/brandy/brandy-2.0/tools/toolchain/gcc-linaro-7.2.1-2017.11-x86_64_arm-linux-gnueabi/bin/../lib/gcc/arm-linux-gnueabi/7.2.1/libgcc.a(_udivsi3.o)
 .debug_line    0x0000000000000366      0x119 /home/ubuntu/tina5sdk-bsp/brandy/brandy-2.0/tools/toolchain/gcc-linaro-7.2.1-2017.11-x86_64_arm-linux-gnueabi/bin/../lib/gcc/arm-linux-gnueabi/7.2.1/libgcc.a(_divsi3.o)
 .debug_line    0x000000000000047f       0xee /home/ubuntu/tina5sdk-bsp/brandy/brandy-2.0/tools/toolchain/gcc-linaro-7.2.1-2017.11-x86_64_arm-linux-gnueabi/bin/../lib/gcc/arm-linux-gnueabi/7.2.1/libgcc.a(_dvmd_lnx.o)
 .debug_line    0x000000000000056d       0xd7 main/boot0_head.o
 .debug_line    0x0000000000000644       0x57 /home/ubuntu/tina5sdk-bsp/brandy/brandy-2.0/spl-pub/arch/arm/cpu/armv7/boot0_entry.o

.debug_str      0x0000000000000000      0xa46
 .debug_str     0x0000000000000000      0xa39 /home/ubuntu/tina5sdk-bsp/brandy/brandy-2.0/spl-pub/nboot/main/boot0_main.o
                                        0xb62 (size before relaxing)
 .debug_str     0x0000000000000a39        0xd main/boot0_head.o
                                        0x4e5 (size before relaxing)

.debug_frame    0x0000000000000000       0xa4
 .debug_frame   0x0000000000000000       0x3c /home/ubuntu/tina5sdk-bsp/brandy/brandy-2.0/spl-pub/nboot/main/boot0_main.o
 .debug_frame   0x000000000000003c       0x20 /home/ubuntu/tina5sdk-bsp/brandy/brandy-2.0/tools/toolchain/gcc-linaro-7.2.1-2017.11-x86_64_arm-linux-gnueabi/bin/../lib/gcc/arm-linux-gnueabi/7.2.1/libgcc.a(_udivsi3.o)
 .debug_frame   0x000000000000005c       0x20 /home/ubuntu/tina5sdk-bsp/brandy/brandy-2.0/tools/toolchain/gcc-linaro-7.2.1-2017.11-x86_64_arm-linux-gnueabi/bin/../lib/gcc/arm-linux-gnueabi/7.2.1/libgcc.a(_divsi3.o)
 .debug_frame   0x000000000000007c       0x28 /home/ubuntu/tina5sdk-bsp/brandy/brandy-2.0/tools/toolchain/gcc-linaro-7.2.1-2017.11-x86_64_arm-linux-gnueabi/bin/../lib/gcc/arm-linux-gnueabi/7.2.1/libgcc.a(_dvmd_lnx.o)
